
APPS_PEER2PEER_AUDIO_RX.elf:     file format elf32-avr

Sections:
Idx Name          Size      VMA       LMA       File off  Algn
  0 .data         00000012  00800200  000030f6  0000318a  2**0
                  CONTENTS, ALLOC, LOAD, DATA
  1 .text         000030f6  00000000  00000000  00000094  2**1
                  CONTENTS, ALLOC, LOAD, READONLY, CODE
  2 .bss          0000078f  00800212  00800212  0000319c  2**0
                  ALLOC
  3 .comment      00000030  00000000  00000000  0000319c  2**0
                  CONTENTS, READONLY
  4 .note.gnu.avr.deviceinfo 00000040  00000000  00000000  000031cc  2**2
                  CONTENTS, READONLY
  5 .debug_aranges 00000708  00000000  00000000  0000320c  2**0
                  CONTENTS, READONLY, DEBUGGING
  6 .debug_info   0000a011  00000000  00000000  00003914  2**0
                  CONTENTS, READONLY, DEBUGGING
  7 .debug_abbrev 0000415b  00000000  00000000  0000d925  2**0
                  CONTENTS, READONLY, DEBUGGING
  8 .debug_line   0000960b  00000000  00000000  00011a80  2**0
                  CONTENTS, READONLY, DEBUGGING
  9 .debug_frame  000015cc  00000000  00000000  0001b08c  2**2
                  CONTENTS, READONLY, DEBUGGING
 10 .debug_str    0001cba5  00000000  00000000  0001c658  2**0
                  CONTENTS, READONLY, DEBUGGING
 11 .debug_loc    0000557c  00000000  00000000  000391fd  2**0
                  CONTENTS, READONLY, DEBUGGING
 12 .debug_ranges 000006f0  00000000  00000000  0003e779  2**0
                  CONTENTS, READONLY, DEBUGGING
 13 .debug_macro  0000950f  00000000  00000000  0003ee69  2**0
                  CONTENTS, READONLY, DEBUGGING

Disassembly of section .text:

00000000 <__vectors>:
       0:	99 c0       	rjmp	.+306    	; 0x134 <__ctors_end>
       2:	00 00       	nop
       4:	b8 c0       	rjmp	.+368    	; 0x176 <__bad_interrupt>
       6:	00 00       	nop
       8:	b6 c0       	rjmp	.+364    	; 0x176 <__bad_interrupt>
       a:	00 00       	nop
       c:	b4 c0       	rjmp	.+360    	; 0x176 <__bad_interrupt>
       e:	00 00       	nop
      10:	b2 c0       	rjmp	.+356    	; 0x176 <__bad_interrupt>
      12:	00 00       	nop
      14:	b0 c0       	rjmp	.+352    	; 0x176 <__bad_interrupt>
      16:	00 00       	nop
      18:	ae c0       	rjmp	.+348    	; 0x176 <__bad_interrupt>
      1a:	00 00       	nop
      1c:	ac c0       	rjmp	.+344    	; 0x176 <__bad_interrupt>
      1e:	00 00       	nop
      20:	aa c0       	rjmp	.+340    	; 0x176 <__bad_interrupt>
      22:	00 00       	nop
      24:	a8 c0       	rjmp	.+336    	; 0x176 <__bad_interrupt>
      26:	00 00       	nop
      28:	a6 c0       	rjmp	.+332    	; 0x176 <__bad_interrupt>
      2a:	00 00       	nop
      2c:	a4 c0       	rjmp	.+328    	; 0x176 <__bad_interrupt>
      2e:	00 00       	nop
      30:	a2 c0       	rjmp	.+324    	; 0x176 <__bad_interrupt>
      32:	00 00       	nop
      34:	a0 c0       	rjmp	.+320    	; 0x176 <__bad_interrupt>
      36:	00 00       	nop
      38:	9e c0       	rjmp	.+316    	; 0x176 <__bad_interrupt>
      3a:	00 00       	nop
      3c:	9c c0       	rjmp	.+312    	; 0x176 <__bad_interrupt>
      3e:	00 00       	nop
      40:	9a c0       	rjmp	.+308    	; 0x176 <__bad_interrupt>
      42:	00 00       	nop
      44:	0c 94 c4 10 	jmp	0x2188	; 0x2188 <__vector_17>
      48:	0c 94 f1 10 	jmp	0x21e2	; 0x21e2 <__vector_18>
      4c:	0c 94 1e 11 	jmp	0x223c	; 0x223c <__vector_19>
      50:	0c 94 97 10 	jmp	0x212e	; 0x212e <__vector_20>
      54:	90 c0       	rjmp	.+288    	; 0x176 <__bad_interrupt>
      56:	00 00       	nop
      58:	8e c0       	rjmp	.+284    	; 0x176 <__bad_interrupt>
      5a:	00 00       	nop
      5c:	8c c0       	rjmp	.+280    	; 0x176 <__bad_interrupt>
      5e:	00 00       	nop
      60:	8a c0       	rjmp	.+276    	; 0x176 <__bad_interrupt>
      62:	00 00       	nop
      64:	88 c0       	rjmp	.+272    	; 0x176 <__bad_interrupt>
      66:	00 00       	nop
      68:	86 c0       	rjmp	.+268    	; 0x176 <__bad_interrupt>
      6a:	00 00       	nop
      6c:	84 c0       	rjmp	.+264    	; 0x176 <__bad_interrupt>
      6e:	00 00       	nop
      70:	82 c0       	rjmp	.+260    	; 0x176 <__bad_interrupt>
      72:	00 00       	nop
      74:	80 c0       	rjmp	.+256    	; 0x176 <__bad_interrupt>
      76:	00 00       	nop
      78:	7e c0       	rjmp	.+252    	; 0x176 <__bad_interrupt>
      7a:	00 00       	nop
      7c:	7c c0       	rjmp	.+248    	; 0x176 <__bad_interrupt>
      7e:	00 00       	nop
      80:	0c 94 78 11 	jmp	0x22f0	; 0x22f0 <__vector_32>
      84:	0c 94 a5 11 	jmp	0x234a	; 0x234a <__vector_33>
      88:	0c 94 d2 11 	jmp	0x23a4	; 0x23a4 <__vector_34>
      8c:	0c 94 4b 11 	jmp	0x2296	; 0x2296 <__vector_35>
      90:	a6 c3       	rjmp	.+1868   	; 0x7de <__vector_36>
      92:	00 00       	nop
      94:	70 c0       	rjmp	.+224    	; 0x176 <__bad_interrupt>
      96:	00 00       	nop
      98:	6e c0       	rjmp	.+220    	; 0x176 <__bad_interrupt>
      9a:	00 00       	nop
      9c:	6c c0       	rjmp	.+216    	; 0x176 <__bad_interrupt>
      9e:	00 00       	nop
      a0:	6a c0       	rjmp	.+212    	; 0x176 <__bad_interrupt>
      a2:	00 00       	nop
      a4:	68 c0       	rjmp	.+208    	; 0x176 <__bad_interrupt>
      a6:	00 00       	nop
      a8:	0c 94 2c 12 	jmp	0x2458	; 0x2458 <__vector_42>
      ac:	0c 94 59 12 	jmp	0x24b2	; 0x24b2 <__vector_43>
      b0:	0c 94 86 12 	jmp	0x250c	; 0x250c <__vector_44>
      b4:	0c 94 ff 11 	jmp	0x23fe	; 0x23fe <__vector_45>
      b8:	5e c0       	rjmp	.+188    	; 0x176 <__bad_interrupt>
      ba:	00 00       	nop
      bc:	0c 94 e0 12 	jmp	0x25c0	; 0x25c0 <__vector_47>
      c0:	0c 94 0d 13 	jmp	0x261a	; 0x261a <__vector_48>
      c4:	0c 94 3a 13 	jmp	0x2674	; 0x2674 <__vector_49>
      c8:	0c 94 b3 12 	jmp	0x2566	; 0x2566 <__vector_50>
      cc:	54 c0       	rjmp	.+168    	; 0x176 <__bad_interrupt>
      ce:	00 00       	nop
      d0:	52 c0       	rjmp	.+164    	; 0x176 <__bad_interrupt>
      d2:	00 00       	nop
      d4:	50 c0       	rjmp	.+160    	; 0x176 <__bad_interrupt>
      d6:	00 00       	nop
      d8:	4e c0       	rjmp	.+156    	; 0x176 <__bad_interrupt>
      da:	00 00       	nop
      dc:	4c c0       	rjmp	.+152    	; 0x176 <__bad_interrupt>
      de:	00 00       	nop
      e0:	4a c0       	rjmp	.+148    	; 0x176 <__bad_interrupt>
      e2:	00 00       	nop
      e4:	48 c0       	rjmp	.+144    	; 0x176 <__bad_interrupt>
      e6:	00 00       	nop
      e8:	46 c0       	rjmp	.+140    	; 0x176 <__bad_interrupt>
      ea:	00 00       	nop
      ec:	44 c0       	rjmp	.+136    	; 0x176 <__bad_interrupt>
      ee:	00 00       	nop
      f0:	42 c0       	rjmp	.+132    	; 0x176 <__bad_interrupt>
      f2:	00 00       	nop
      f4:	40 c0       	rjmp	.+128    	; 0x176 <__bad_interrupt>
      f6:	00 00       	nop
      f8:	3e c0       	rjmp	.+124    	; 0x176 <__bad_interrupt>
      fa:	00 00       	nop
      fc:	3c c0       	rjmp	.+120    	; 0x176 <__bad_interrupt>
      fe:	00 00       	nop
     100:	3a c0       	rjmp	.+116    	; 0x176 <__bad_interrupt>
     102:	00 00       	nop
     104:	38 c0       	rjmp	.+112    	; 0x176 <__bad_interrupt>
     106:	00 00       	nop
     108:	36 c0       	rjmp	.+108    	; 0x176 <__bad_interrupt>
     10a:	00 00       	nop
     10c:	34 c0       	rjmp	.+104    	; 0x176 <__bad_interrupt>
     10e:	00 00       	nop
     110:	32 c0       	rjmp	.+100    	; 0x176 <__bad_interrupt>
     112:	00 00       	nop
     114:	30 c0       	rjmp	.+96     	; 0x176 <__bad_interrupt>
     116:	00 00       	nop
     118:	2e c0       	rjmp	.+92     	; 0x176 <__bad_interrupt>
     11a:	00 00       	nop
     11c:	2c c0       	rjmp	.+88     	; 0x176 <__bad_interrupt>
     11e:	00 00       	nop
     120:	2a c0       	rjmp	.+84     	; 0x176 <__bad_interrupt>
     122:	00 00       	nop
     124:	28 c0       	rjmp	.+80     	; 0x176 <__bad_interrupt>
     126:	00 00       	nop
     128:	26 c0       	rjmp	.+76     	; 0x176 <__bad_interrupt>
     12a:	00 00       	nop
     12c:	24 c0       	rjmp	.+72     	; 0x176 <__bad_interrupt>
     12e:	00 00       	nop
     130:	22 c0       	rjmp	.+68     	; 0x176 <__bad_interrupt>
	...

00000134 <__ctors_end>:
     134:	11 24       	eor	r1, r1
     136:	1f be       	out	0x3f, r1	; 63
     138:	cf ef       	ldi	r28, 0xFF	; 255
     13a:	d1 e8       	ldi	r29, 0x81	; 129
     13c:	de bf       	out	0x3e, r29	; 62
     13e:	cd bf       	out	0x3d, r28	; 61
     140:	00 e0       	ldi	r16, 0x00	; 0
     142:	0c bf       	out	0x3c, r16	; 60

00000144 <__do_copy_data>:
     144:	12 e0       	ldi	r17, 0x02	; 2
     146:	a0 e0       	ldi	r26, 0x00	; 0
     148:	b2 e0       	ldi	r27, 0x02	; 2
     14a:	e6 ef       	ldi	r30, 0xF6	; 246
     14c:	f0 e3       	ldi	r31, 0x30	; 48
     14e:	00 e0       	ldi	r16, 0x00	; 0
     150:	0b bf       	out	0x3b, r16	; 59
     152:	02 c0       	rjmp	.+4      	; 0x158 <__do_copy_data+0x14>
     154:	07 90       	elpm	r0, Z+
     156:	0d 92       	st	X+, r0
     158:	a2 31       	cpi	r26, 0x12	; 18
     15a:	b1 07       	cpc	r27, r17
     15c:	d9 f7       	brne	.-10     	; 0x154 <__do_copy_data+0x10>

0000015e <__do_clear_bss>:
     15e:	29 e0       	ldi	r18, 0x09	; 9
     160:	a2 e1       	ldi	r26, 0x12	; 18
     162:	b2 e0       	ldi	r27, 0x02	; 2
     164:	01 c0       	rjmp	.+2      	; 0x168 <.do_clear_bss_start>

00000166 <.do_clear_bss_loop>:
     166:	1d 92       	st	X+, r1

00000168 <.do_clear_bss_start>:
     168:	a1 3a       	cpi	r26, 0xA1	; 161
     16a:	b2 07       	cpc	r27, r18
     16c:	e1 f7       	brne	.-8      	; 0x166 <.do_clear_bss_loop>
     16e:	0e 94 9a 15 	call	0x2b34	; 0x2b34 <main>
     172:	0c 94 79 18 	jmp	0x30f2	; 0x30f2 <_exit>

00000176 <__bad_interrupt>:
     176:	44 cf       	rjmp	.-376    	; 0x0 <__vectors>

00000178 <common_tc_read_count>:
     178:	0e 94 3f 10 	call	0x207e	; 0x207e <tmr_read_count>
     17c:	20 91 16 02 	lds	r18, 0x0216	; 0x800216 <timer_mul_var>
     180:	22 23       	and	r18, r18
     182:	d9 f0       	breq	.+54     	; 0x1ba <common_tc_read_count+0x42>
     184:	40 91 96 09 	lds	r20, 0x0996	; 0x800996 <timer_multiplier>
     188:	30 e0       	ldi	r19, 0x00	; 0
     18a:	20 91 16 02 	lds	r18, 0x0216	; 0x800216 <timer_mul_var>
     18e:	64 2f       	mov	r22, r20
     190:	73 2f       	mov	r23, r19
     192:	0e 94 1e 16 	call	0x2c3c	; 0x2c3c <__udivmodhi4>
     196:	fb 01       	movw	r30, r22
     198:	8f ef       	ldi	r24, 0xFF	; 255
     19a:	9f ef       	ldi	r25, 0xFF	; 255
     19c:	64 2f       	mov	r22, r20
     19e:	73 2f       	mov	r23, r19
     1a0:	0e 94 1e 16 	call	0x2c3c	; 0x2c3c <__udivmodhi4>
     1a4:	30 e0       	ldi	r19, 0x00	; 0
     1a6:	62 9f       	mul	r22, r18
     1a8:	c0 01       	movw	r24, r0
     1aa:	63 9f       	mul	r22, r19
     1ac:	90 0d       	add	r25, r0
     1ae:	72 9f       	mul	r23, r18
     1b0:	90 0d       	add	r25, r0
     1b2:	11 24       	eor	r1, r1
     1b4:	8e 0f       	add	r24, r30
     1b6:	9f 1f       	adc	r25, r31
     1b8:	08 95       	ret
     1ba:	60 91 96 09 	lds	r22, 0x0996	; 0x800996 <timer_multiplier>
     1be:	70 e0       	ldi	r23, 0x00	; 0
     1c0:	0e 94 1e 16 	call	0x2c3c	; 0x2c3c <__udivmodhi4>
     1c4:	cb 01       	movw	r24, r22
     1c6:	08 95       	ret

000001c8 <common_tc_compare_stop>:
     1c8:	0e 94 44 10 	call	0x2088	; 0x2088 <tmr_disable_cc_interrupt>
     1cc:	0e 94 68 10 	call	0x20d0	; 0x20d0 <save_cpu_interrupt>
     1d0:	10 92 12 02 	sts	0x0212, r1	; 0x800212 <__data_end>
     1d4:	10 92 13 02 	sts	0x0213, r1	; 0x800213 <__data_end+0x1>
     1d8:	10 92 14 02 	sts	0x0214, r1	; 0x800214 <__data_end+0x2>
     1dc:	10 92 15 02 	sts	0x0215, r1	; 0x800215 <__data_end+0x3>
     1e0:	10 92 18 02 	sts	0x0218, r1	; 0x800218 <compare_value+0x1>
     1e4:	10 92 17 02 	sts	0x0217, r1	; 0x800217 <compare_value>
     1e8:	0c 94 75 10 	jmp	0x20ea	; 0x20ea <restore_cpu_interrupt>

000001ec <common_tc_overflow_stop>:
     1ec:	0e 94 52 10 	call	0x20a4	; 0x20a4 <tmr_disable_ovf_interrupt>
     1f0:	10 92 16 02 	sts	0x0216, r1	; 0x800216 <timer_mul_var>
     1f4:	08 95       	ret

000001f6 <common_tc_stop>:
     1f6:	e8 df       	rcall	.-48     	; 0x1c8 <common_tc_compare_stop>
     1f8:	f9 df       	rcall	.-14     	; 0x1ec <common_tc_overflow_stop>
     1fa:	0c 94 59 10 	jmp	0x20b2	; 0x20b2 <tmr_stop>

000001fe <common_tc_delay>:
     1fe:	0f 93       	push	r16
     200:	1f 93       	push	r17
     202:	cf 93       	push	r28
     204:	df 93       	push	r29
     206:	ec 01       	movw	r28, r24
     208:	0e 94 3f 10 	call	0x207e	; 0x207e <tmr_read_count>
     20c:	8c 01       	movw	r16, r24
     20e:	be 01       	movw	r22, r28
     210:	80 e0       	ldi	r24, 0x00	; 0
     212:	90 e0       	ldi	r25, 0x00	; 0
     214:	20 91 96 09 	lds	r18, 0x0996	; 0x800996 <timer_multiplier>
     218:	30 e0       	ldi	r19, 0x00	; 0
     21a:	40 e0       	ldi	r20, 0x00	; 0
     21c:	50 e0       	ldi	r21, 0x00	; 0
     21e:	0e 94 0f 16 	call	0x2c1e	; 0x2c1e <__mulsi3>
     222:	dc 01       	movw	r26, r24
     224:	cb 01       	movw	r24, r22
     226:	a8 01       	movw	r20, r16
     228:	60 e0       	ldi	r22, 0x00	; 0
     22a:	70 e0       	ldi	r23, 0x00	; 0
     22c:	48 0f       	add	r20, r24
     22e:	59 1f       	adc	r21, r25
     230:	6a 1f       	adc	r22, r26
     232:	7b 1f       	adc	r23, r27
     234:	40 93 12 02 	sts	0x0212, r20	; 0x800212 <__data_end>
     238:	50 93 13 02 	sts	0x0213, r21	; 0x800213 <__data_end+0x1>
     23c:	60 93 14 02 	sts	0x0214, r22	; 0x800214 <__data_end+0x2>
     240:	70 93 15 02 	sts	0x0215, r23	; 0x800215 <__data_end+0x3>
     244:	40 91 12 02 	lds	r20, 0x0212	; 0x800212 <__data_end>
     248:	50 91 13 02 	lds	r21, 0x0213	; 0x800213 <__data_end+0x1>
     24c:	60 91 14 02 	lds	r22, 0x0214	; 0x800214 <__data_end+0x2>
     250:	70 91 15 02 	lds	r23, 0x0215	; 0x800215 <__data_end+0x3>
     254:	ab 01       	movw	r20, r22
     256:	66 27       	eor	r22, r22
     258:	77 27       	eor	r23, r23
     25a:	40 93 12 02 	sts	0x0212, r20	; 0x800212 <__data_end>
     25e:	50 93 13 02 	sts	0x0213, r21	; 0x800213 <__data_end+0x1>
     262:	60 93 14 02 	sts	0x0214, r22	; 0x800214 <__data_end+0x2>
     266:	70 93 15 02 	sts	0x0215, r23	; 0x800215 <__data_end+0x3>
     26a:	40 91 12 02 	lds	r20, 0x0212	; 0x800212 <__data_end>
     26e:	50 91 13 02 	lds	r21, 0x0213	; 0x800213 <__data_end+0x1>
     272:	60 91 14 02 	lds	r22, 0x0214	; 0x800214 <__data_end+0x2>
     276:	70 91 15 02 	lds	r23, 0x0215	; 0x800215 <__data_end+0x3>
     27a:	41 15       	cp	r20, r1
     27c:	51 05       	cpc	r21, r1
     27e:	61 05       	cpc	r22, r1
     280:	71 05       	cpc	r23, r1
     282:	91 f0       	breq	.+36     	; 0x2a8 <common_tc_delay+0xaa>
     284:	40 91 12 02 	lds	r20, 0x0212	; 0x800212 <__data_end>
     288:	50 91 13 02 	lds	r21, 0x0213	; 0x800213 <__data_end+0x1>
     28c:	60 91 14 02 	lds	r22, 0x0214	; 0x800214 <__data_end+0x2>
     290:	70 91 15 02 	lds	r23, 0x0215	; 0x800215 <__data_end+0x3>
     294:	01 96       	adiw	r24, 0x01	; 1
     296:	08 0f       	add	r16, r24
     298:	19 1f       	adc	r17, r25
     29a:	10 93 18 02 	sts	0x0218, r17	; 0x800218 <compare_value+0x1>
     29e:	00 93 17 02 	sts	0x0217, r16	; 0x800217 <compare_value>
     2a2:	0e 94 44 10 	call	0x2088	; 0x2088 <tmr_disable_cc_interrupt>
     2a6:	08 c0       	rjmp	.+16     	; 0x2b8 <common_tc_delay+0xba>
     2a8:	08 0f       	add	r16, r24
     2aa:	19 1f       	adc	r17, r25
     2ac:	10 93 18 02 	sts	0x0218, r17	; 0x800218 <compare_value+0x1>
     2b0:	00 93 17 02 	sts	0x0217, r16	; 0x800217 <compare_value>
     2b4:	0e 94 4b 10 	call	0x2096	; 0x2096 <tmr_enable_cc_interrupt>
     2b8:	80 91 17 02 	lds	r24, 0x0217	; 0x800217 <compare_value>
     2bc:	90 91 18 02 	lds	r25, 0x0218	; 0x800218 <compare_value+0x1>
     2c0:	84 36       	cpi	r24, 0x64	; 100
     2c2:	91 05       	cpc	r25, r1
     2c4:	30 f4       	brcc	.+12     	; 0x2d2 <common_tc_delay+0xd4>
     2c6:	8c 59       	subi	r24, 0x9C	; 156
     2c8:	9f 4f       	sbci	r25, 0xFF	; 255
     2ca:	90 93 18 02 	sts	0x0218, r25	; 0x800218 <compare_value+0x1>
     2ce:	80 93 17 02 	sts	0x0217, r24	; 0x800217 <compare_value>
     2d2:	80 91 17 02 	lds	r24, 0x0217	; 0x800217 <compare_value>
     2d6:	90 91 18 02 	lds	r25, 0x0218	; 0x800218 <compare_value+0x1>
     2da:	0e 94 5d 10 	call	0x20ba	; 0x20ba <tmr_write_cmpreg>
     2de:	df 91       	pop	r29
     2e0:	cf 91       	pop	r28
     2e2:	1f 91       	pop	r17
     2e4:	0f 91       	pop	r16
     2e6:	08 95       	ret

000002e8 <common_tc_init>:
     2e8:	10 92 16 02 	sts	0x0216, r1	; 0x800216 <timer_mul_var>
     2ec:	0e 94 77 10 	call	0x20ee	; 0x20ee <tmr_init>
     2f0:	80 93 96 09 	sts	0x0996, r24	; 0x800996 <timer_multiplier>
     2f4:	08 95       	ret

000002f6 <tmr_ovf_callback>:
     2f6:	80 91 12 02 	lds	r24, 0x0212	; 0x800212 <__data_end>
     2fa:	90 91 13 02 	lds	r25, 0x0213	; 0x800213 <__data_end+0x1>
     2fe:	a0 91 14 02 	lds	r26, 0x0214	; 0x800214 <__data_end+0x2>
     302:	b0 91 15 02 	lds	r27, 0x0215	; 0x800215 <__data_end+0x3>
     306:	00 97       	sbiw	r24, 0x00	; 0
     308:	a1 05       	cpc	r26, r1
     30a:	b1 05       	cpc	r27, r1
     30c:	c9 f0       	breq	.+50     	; 0x340 <tmr_ovf_callback+0x4a>
     30e:	80 91 12 02 	lds	r24, 0x0212	; 0x800212 <__data_end>
     312:	90 91 13 02 	lds	r25, 0x0213	; 0x800213 <__data_end+0x1>
     316:	a0 91 14 02 	lds	r26, 0x0214	; 0x800214 <__data_end+0x2>
     31a:	b0 91 15 02 	lds	r27, 0x0215	; 0x800215 <__data_end+0x3>
     31e:	01 97       	sbiw	r24, 0x01	; 1
     320:	a1 09       	sbc	r26, r1
     322:	b1 09       	sbc	r27, r1
     324:	80 93 12 02 	sts	0x0212, r24	; 0x800212 <__data_end>
     328:	90 93 13 02 	sts	0x0213, r25	; 0x800213 <__data_end+0x1>
     32c:	a0 93 14 02 	sts	0x0214, r26	; 0x800214 <__data_end+0x2>
     330:	b0 93 15 02 	sts	0x0215, r27	; 0x800215 <__data_end+0x3>
     334:	00 97       	sbiw	r24, 0x00	; 0
     336:	a1 05       	cpc	r26, r1
     338:	b1 05       	cpc	r27, r1
     33a:	11 f4       	brne	.+4      	; 0x340 <tmr_ovf_callback+0x4a>
     33c:	0e 94 4b 10 	call	0x2096	; 0x2096 <tmr_enable_cc_interrupt>
     340:	80 91 16 02 	lds	r24, 0x0216	; 0x800216 <timer_mul_var>
     344:	8f 5f       	subi	r24, 0xFF	; 255
     346:	80 93 16 02 	sts	0x0216, r24	; 0x800216 <timer_mul_var>
     34a:	90 91 96 09 	lds	r25, 0x0996	; 0x800996 <timer_multiplier>
     34e:	89 17       	cp	r24, r25
     350:	48 f0       	brcs	.+18     	; 0x364 <tmr_ovf_callback+0x6e>
     352:	10 92 16 02 	sts	0x0216, r1	; 0x800216 <timer_mul_var>
     356:	e0 91 19 02 	lds	r30, 0x0219	; 0x800219 <common_tc_ovf_callback>
     35a:	f0 91 1a 02 	lds	r31, 0x021A	; 0x80021a <common_tc_ovf_callback+0x1>
     35e:	30 97       	sbiw	r30, 0x00	; 0
     360:	09 f0       	breq	.+2      	; 0x364 <tmr_ovf_callback+0x6e>
     362:	19 95       	eicall
     364:	08 95       	ret

00000366 <tmr_cca_callback>:
     366:	0e 94 44 10 	call	0x2088	; 0x2088 <tmr_disable_cc_interrupt>
     36a:	e0 91 1b 02 	lds	r30, 0x021B	; 0x80021b <common_tc_cca_callback>
     36e:	f0 91 1c 02 	lds	r31, 0x021C	; 0x80021c <common_tc_cca_callback+0x1>
     372:	30 97       	sbiw	r30, 0x00	; 0
     374:	09 f0       	breq	.+2      	; 0x378 <tmr_cca_callback+0x12>
     376:	19 95       	eicall
     378:	08 95       	ret

0000037a <set_common_tc_overflow_callback>:
     37a:	90 93 1a 02 	sts	0x021A, r25	; 0x80021a <common_tc_ovf_callback+0x1>
     37e:	80 93 19 02 	sts	0x0219, r24	; 0x800219 <common_tc_ovf_callback>
     382:	08 95       	ret

00000384 <set_common_tc_expiry_callback>:
     384:	90 93 1c 02 	sts	0x021C, r25	; 0x80021c <common_tc_cca_callback+0x1>
     388:	80 93 1b 02 	sts	0x021B, r24	; 0x80021b <common_tc_cca_callback>
     38c:	08 95       	ret

0000038e <sysclk_init>:

/**
 *  Function to initialize the clock and disable clock for not required modules.
 */
void sysclk_init(void)
{
     38e:	cf 93       	push	r28
     390:	df 93       	push	r29
     392:	1f 92       	push	r1
     394:	cd b7       	in	r28, 0x3d	; 61
     396:	de b7       	in	r29, 0x3e	; 62
	/* Turn off all peripheral clocks that can be turned off.
	 * The debugWIRE system of some devices that shares system clock with the SPI module.
	 * Thus the PRSPI bit in the PRR register must not be set when debugging.
	 */
	for (i = 0; i < NUMBER_OF_POWER_REG; i++) {
		*(reg++) = 0xFF;
     398:	8f ef       	ldi	r24, 0xFF	; 255
     39a:	80 93 64 00 	sts	0x0064, r24	; 0x800064 <__TEXT_REGION_LENGTH__+0x700064>
     39e:	80 93 65 00 	sts	0x0065, r24	; 0x800065 <__TEXT_REGION_LENGTH__+0x700065>

typedef uint8_t irqflags_t;

static inline irqflags_t cpu_irq_save(void)
{
	volatile irqflags_t flags = SREG;
     3a2:	8f b7       	in	r24, 0x3f	; 63
     3a4:	89 83       	std	Y+1, r24	; 0x01
	cpu_irq_disable();
     3a6:	f8 94       	cli
	return flags;
     3a8:	89 81       	ldd	r24, Y+1	; 0x01
static inline void sysclk_set_prescalers(uint8_t psdiv)
{
#if !MEGA_UNSPECIFIED
	irqflags_t flags = cpu_irq_save();

	ASM(
     3aa:	5f 93       	push	r21
     3ac:	50 e8       	ldi	r21, 0x80	; 128
     3ae:	50 93 61 00 	sts	0x0061, r21	; 0x800061 <__TEXT_REGION_LENGTH__+0x700061>
     3b2:	50 e0       	ldi	r21, 0x00	; 0
     3b4:	50 93 61 00 	sts	0x0061, r21	; 0x800061 <__TEXT_REGION_LENGTH__+0x700061>
     3b8:	5f 91       	pop	r21
}

static inline void cpu_irq_restore(irqflags_t flags)
{
	barrier();
	SREG = flags;
     3ba:	8f bf       	out	0x3f, r24	; 63
	if ((CONFIG_SYSCLK_PSDIV != SYSCLK_PSDIV_8) ||
			(SYSCLK_PSDIV_8 != CLKPR)) {
		sysclk_set_prescalers(CONFIG_SYSCLK_PSDIV);
	}
#endif
}
     3bc:	0f 90       	pop	r0
     3be:	df 91       	pop	r29
     3c0:	cf 91       	pop	r28
     3c2:	08 95       	ret

000003c4 <sysclk_enable_module>:
 * \param port ID of the port to which the module is connected (one of
 * the \c power_red_id *definitions).
 * \param id The ID (bitmask) of the peripheral module to be enabled.
 */
void sysclk_enable_module(enum power_red_id port, uint8_t id)
{
     3c4:	cf 93       	push	r28
     3c6:	df 93       	push	r29
     3c8:	1f 92       	push	r1
     3ca:	cd b7       	in	r28, 0x3d	; 61
     3cc:	de b7       	in	r29, 0x3e	; 62

typedef uint8_t irqflags_t;

static inline irqflags_t cpu_irq_save(void)
{
	volatile irqflags_t flags = SREG;
     3ce:	9f b7       	in	r25, 0x3f	; 63
     3d0:	99 83       	std	Y+1, r25	; 0x01
	cpu_irq_disable();
     3d2:	f8 94       	cli
	return flags;
     3d4:	99 81       	ldd	r25, Y+1	; 0x01
#if !MEGA_UNSPECIFIED && !MEGA_XX
	uint8_t *reg = (uint8_t *)&(POWER_REG_ADD);
	irqflags_t flags = cpu_irq_save();

	if (port < NUMBER_OF_POWER_REG) {
     3d6:	82 30       	cpi	r24, 0x02	; 2
     3d8:	40 f4       	brcc	.+16     	; 0x3ea <sysclk_enable_module+0x26>
		*(reg + port)  &= ~id;
     3da:	e8 2f       	mov	r30, r24
     3dc:	f0 e0       	ldi	r31, 0x00	; 0
     3de:	ec 59       	subi	r30, 0x9C	; 156
     3e0:	ff 4f       	sbci	r31, 0xFF	; 255
     3e2:	60 95       	com	r22
     3e4:	80 81       	ld	r24, Z
     3e6:	68 23       	and	r22, r24
     3e8:	60 83       	st	Z, r22
}

static inline void cpu_irq_restore(irqflags_t flags)
{
	barrier();
	SREG = flags;
     3ea:	9f bf       	out	0x3f, r25	; 63
	}
	cpu_irq_restore(flags);
#endif
}
     3ec:	0f 90       	pop	r0
     3ee:	df 91       	pop	r29
     3f0:	cf 91       	pop	r28
     3f2:	08 95       	ret

000003f4 <sysclk_disable_module>:
 * \param port ID of the port to which the module is connected (one of
 * the \c power_red_id *definitions).
 * \param id The ID (bit mask) of the peripheral module to be disabled.
 */
void sysclk_disable_module( enum power_red_id port, uint8_t id)
{
     3f4:	cf 93       	push	r28
     3f6:	df 93       	push	r29
     3f8:	1f 92       	push	r1
     3fa:	cd b7       	in	r28, 0x3d	; 61
     3fc:	de b7       	in	r29, 0x3e	; 62

typedef uint8_t irqflags_t;

static inline irqflags_t cpu_irq_save(void)
{
	volatile irqflags_t flags = SREG;
     3fe:	9f b7       	in	r25, 0x3f	; 63
     400:	99 83       	std	Y+1, r25	; 0x01
	cpu_irq_disable();
     402:	f8 94       	cli
	return flags;
     404:	99 81       	ldd	r25, Y+1	; 0x01
#if !MEGA_UNSPECIFIED && !MEGA_XX
	uint8_t *reg = (uint8_t *)&(POWER_REG_ADD);
	irqflags_t flags = cpu_irq_save();
	if (port < NUMBER_OF_POWER_REG) {
     406:	82 30       	cpi	r24, 0x02	; 2
     408:	38 f4       	brcc	.+14     	; 0x418 <__LOCK_REGION_LENGTH__+0x18>
		*(reg + port) |= id;
     40a:	e8 2f       	mov	r30, r24
     40c:	f0 e0       	ldi	r31, 0x00	; 0
     40e:	ec 59       	subi	r30, 0x9C	; 156
     410:	ff 4f       	sbci	r31, 0xFF	; 255
     412:	80 81       	ld	r24, Z
     414:	68 2b       	or	r22, r24
     416:	60 83       	st	Z, r22
}

static inline void cpu_irq_restore(irqflags_t flags)
{
	barrier();
	SREG = flags;
     418:	9f bf       	out	0x3f, r25	; 63
	}
	cpu_irq_restore(flags);
#endif
}
     41a:	0f 90       	pop	r0
     41c:	df 91       	pop	r29
     41e:	cf 91       	pop	r28
     420:	08 95       	ret

00000422 <usart_serial_write_packet>:
 * \param len    Length of data
 *
 */
status_code_t usart_serial_write_packet(usart_if usart, const uint8_t *data,
		size_t len)
{
     422:	ef 92       	push	r14
     424:	ff 92       	push	r15
     426:	0f 93       	push	r16
     428:	1f 93       	push	r17
     42a:	cf 93       	push	r28
     42c:	df 93       	push	r29
     42e:	7c 01       	movw	r14, r24
     430:	8b 01       	movw	r16, r22
     432:	ea 01       	movw	r28, r20
	while (len) {
     434:	20 97       	sbiw	r28, 0x00	; 0
     436:	39 f0       	breq	.+14     	; 0x446 <usart_serial_write_packet+0x24>
 *
 * \return Status code
 */
static inline status_code_t usart_serial_putchar(usart_if usart, uint8_t c)
{
	return usart_putchar(usart, c);
     438:	f8 01       	movw	r30, r16
     43a:	61 91       	ld	r22, Z+
     43c:	8f 01       	movw	r16, r30
     43e:	c7 01       	movw	r24, r14
     440:	54 d0       	rcall	.+168    	; 0x4ea <usart_putchar>
		usart_serial_putchar(usart, *data);
		len--;
     442:	21 97       	sbiw	r28, 0x01	; 1
 *
 */
status_code_t usart_serial_write_packet(usart_if usart, const uint8_t *data,
		size_t len)
{
	while (len) {
     444:	c9 f7       	brne	.-14     	; 0x438 <usart_serial_write_packet+0x16>
		usart_serial_putchar(usart, *data);
		len--;
		data++;
	}
	return STATUS_OK;
}
     446:	80 e0       	ldi	r24, 0x00	; 0
     448:	df 91       	pop	r29
     44a:	cf 91       	pop	r28
     44c:	1f 91       	pop	r17
     44e:	0f 91       	pop	r16
     450:	ff 90       	pop	r15
     452:	ef 90       	pop	r14
     454:	08 95       	ret

00000456 <usart_serial_read_packet>:
 * \param len    Length of data
 *
 */
status_code_t usart_serial_read_packet(usart_if usart, uint8_t *data,
		size_t len)
{
     456:	ef 92       	push	r14
     458:	ff 92       	push	r15
     45a:	0f 93       	push	r16
     45c:	1f 93       	push	r17
     45e:	cf 93       	push	r28
     460:	df 93       	push	r29
     462:	7c 01       	movw	r14, r24
     464:	8b 01       	movw	r16, r22
     466:	ea 01       	movw	r28, r20
	while (len) {
     468:	20 97       	sbiw	r28, 0x00	; 0
     46a:	39 f0       	breq	.+14     	; 0x47a <usart_serial_read_packet+0x24>
 * \param data   Data to read
 *
 */
static inline void usart_serial_getchar(usart_if usart, uint8_t *data)
{
	*data = usart_getchar(usart);
     46c:	c7 01       	movw	r24, r14
     46e:	44 d0       	rcall	.+136    	; 0x4f8 <usart_getchar>
     470:	f8 01       	movw	r30, r16
     472:	81 93       	st	Z+, r24
     474:	8f 01       	movw	r16, r30
		usart_serial_getchar(usart, data);
		len--;
     476:	21 97       	sbiw	r28, 0x01	; 1
 *
 */
status_code_t usart_serial_read_packet(usart_if usart, uint8_t *data,
		size_t len)
{
	while (len) {
     478:	c9 f7       	brne	.-14     	; 0x46c <usart_serial_read_packet+0x16>
		usart_serial_getchar(usart, data);
		len--;
		data++;
	}
	return STATUS_OK;
}
     47a:	80 e0       	ldi	r24, 0x00	; 0
     47c:	df 91       	pop	r29
     47e:	cf 91       	pop	r28
     480:	1f 91       	pop	r17
     482:	0f 91       	pop	r16
     484:	ff 90       	pop	r15
     486:	ef 90       	pop	r14
     488:	08 95       	ret

0000048a <_read>:
#elif (defined(__GNUC__) && (XMEGA || MEGA) )

int _read (int *f); // Remove GCC compiler warning

int _read (int *f)
{
     48a:	cf 93       	push	r28
     48c:	df 93       	push	r29
     48e:	1f 92       	push	r1
     490:	cd b7       	in	r28, 0x3d	; 61
     492:	de b7       	in	r29, 0x3e	; 62
	char c;
	ptr_get(stdio_base,&c);
     494:	80 91 5b 09 	lds	r24, 0x095B	; 0x80095b <stdio_base>
     498:	90 91 5c 09 	lds	r25, 0x095C	; 0x80095c <stdio_base+0x1>
     49c:	e0 91 57 09 	lds	r30, 0x0957	; 0x800957 <ptr_get>
     4a0:	f0 91 58 09 	lds	r31, 0x0958	; 0x800958 <ptr_get+0x1>
     4a4:	be 01       	movw	r22, r28
     4a6:	6f 5f       	subi	r22, 0xFF	; 255
     4a8:	7f 4f       	sbci	r23, 0xFF	; 255
     4aa:	19 95       	eicall
	return c;
     4ac:	89 81       	ldd	r24, Y+1	; 0x01
}
     4ae:	08 2e       	mov	r0, r24
     4b0:	00 0c       	add	r0, r0
     4b2:	99 0b       	sbc	r25, r25
     4b4:	0f 90       	pop	r0
     4b6:	df 91       	pop	r29
     4b8:	cf 91       	pop	r28
     4ba:	08 95       	ret

000004bc <_write>:
#elif (defined(__GNUC__) && (XMEGA || MEGA))

int _write (char c, int *f);

int _write (char c, int *f)
{
     4bc:	68 2f       	mov	r22, r24
	if (ptr_put(stdio_base, c) < 0) {
     4be:	80 91 5b 09 	lds	r24, 0x095B	; 0x80095b <stdio_base>
     4c2:	90 91 5c 09 	lds	r25, 0x095C	; 0x80095c <stdio_base+0x1>
     4c6:	e0 91 59 09 	lds	r30, 0x0959	; 0x800959 <ptr_put>
     4ca:	f0 91 5a 09 	lds	r31, 0x095A	; 0x80095a <ptr_put+0x1>
     4ce:	19 95       	eicall
     4d0:	99 23       	and	r25, r25
     4d2:	1c f0       	brlt	.+6      	; 0x4da <_write+0x1e>
		return -1;
	}
	return 1;
     4d4:	81 e0       	ldi	r24, 0x01	; 1
     4d6:	90 e0       	ldi	r25, 0x00	; 0
     4d8:	08 95       	ret
int _write (char c, int *f);

int _write (char c, int *f)
{
	if (ptr_put(stdio_base, c) < 0) {
		return -1;
     4da:	8f ef       	ldi	r24, 0xFF	; 255
     4dc:	9f ef       	ldi	r25, 0xFF	; 255
	}
	return 1;
}
     4de:	08 95       	ret

000004e0 <board_init>:
		port_pin_flags_t flags)
{
	/* Select direction and initial pin state */
	if (flags & IOPORT_DIR_OUTPUT) {
		if (flags & IOPORT_INIT_HIGH) {
			*((uint8_t *)port + 2) |= pin_mask;
     4e0:	2c 9a       	sbi	0x05, 4	; 5
		} else {
			*((uint8_t *)port + 2) &= ~pin_mask;
		}

		*((uint8_t *)port + 1) |= pin_mask;
     4e2:	24 9a       	sbi	0x04, 4	; 4
	} else {
		*((uint8_t *)port + 1) &= ~pin_mask;
     4e4:	6c 98       	cbi	0x0d, 4	; 13
		if (flags & IOPORT_PULL_UP) {
			*((uint8_t *)port + 2) |= pin_mask;
     4e6:	74 9a       	sbi	0x0e, 4	; 14
     4e8:	08 95       	ret

000004ea <usart_putchar>:
	}

	if (baud_offset != USART_BAUD_UNDEFINED) {
		usart->UBRR = baudctrl;
	}
}
     4ea:	fc 01       	movw	r30, r24
     4ec:	90 81       	ld	r25, Z
     4ee:	95 ff       	sbrs	r25, 5
     4f0:	fd cf       	rjmp	.-6      	; 0x4ec <usart_putchar+0x2>
     4f2:	66 83       	std	Z+6, r22	; 0x06
     4f4:	80 e0       	ldi	r24, 0x00	; 0
     4f6:	08 95       	ret

000004f8 <usart_getchar>:
     4f8:	fc 01       	movw	r30, r24
     4fa:	90 81       	ld	r25, Z
     4fc:	99 23       	and	r25, r25
     4fe:	ec f7       	brge	.-6      	; 0x4fa <usart_getchar+0x2>
     500:	86 81       	ldd	r24, Z+6	; 0x06
     502:	08 95       	ret

00000504 <usart_set_baudrate>:
 * \retval true if the hardware supports the baud rate
 * \retval false if the hardware does not support the baud rate (i.e. it's
 *               either too high or too low.)
 */
bool usart_set_baudrate(USART_t *usart, uint32_t baud, uint32_t cpu_hz)
{
     504:	8f 92       	push	r8
     506:	9f 92       	push	r9
     508:	af 92       	push	r10
     50a:	bf 92       	push	r11
     50c:	cf 92       	push	r12
     50e:	df 92       	push	r13
     510:	ef 92       	push	r14
     512:	ff 92       	push	r15
     514:	0f 93       	push	r16
     516:	1f 93       	push	r17
     518:	cf 93       	push	r28
     51a:	df 93       	push	r29
     51c:	ec 01       	movw	r28, r24
     51e:	6a 01       	movw	r12, r20
     520:	7b 01       	movw	r14, r22

	/*
	 * Check if the hardware supports the given baud rate
	 */
	/* 8 =  8 * (0 + 1) = (UBRRn_min + 1) */
	max_rate = cpu_hz / 8;
     522:	c9 01       	movw	r24, r18
     524:	b8 01       	movw	r22, r16
     526:	68 94       	set
     528:	12 f8       	bld	r1, 2
     52a:	96 95       	lsr	r25
     52c:	87 95       	ror	r24
     52e:	77 95       	ror	r23
     530:	67 95       	ror	r22
     532:	16 94       	lsr	r1
     534:	d1 f7       	brne	.-12     	; 0x52a <usart_set_baudrate+0x26>
	/*if (usart->UCSRnA & USART_U2X_bm) {
		max_rate /= 2;
		min_rate /= 2;
	}*/

	if( baud <= max_rate && baud > max_rate/2 ){
     536:	6c 15       	cp	r22, r12
     538:	7d 05       	cpc	r23, r13
     53a:	8e 05       	cpc	r24, r14
     53c:	9f 05       	cpc	r25, r15
     53e:	78 f1       	brcs	.+94     	; 0x59e <usart_set_baudrate+0x9a>
     540:	48 01       	movw	r8, r16
     542:	59 01       	movw	r10, r18
     544:	68 94       	set
     546:	13 f8       	bld	r1, 3
     548:	b6 94       	lsr	r11
     54a:	a7 94       	ror	r10
     54c:	97 94       	ror	r9
     54e:	87 94       	ror	r8
     550:	16 94       	lsr	r1
     552:	d1 f7       	brne	.-12     	; 0x548 <usart_set_baudrate+0x44>
     554:	8c 14       	cp	r8, r12
     556:	9d 04       	cpc	r9, r13
     558:	ae 04       	cpc	r10, r14
     55a:	bf 04       	cpc	r11, r15
     55c:	20 f5       	brcc	.+72     	; 0x5a6 <usart_set_baudrate+0xa2>
 *
 * \param usart The USART module.
 */
static inline void usart_double_baud_enable(USART_t *usart)
{
	usart->UCSRnA |=  USART_U2X_bm;
     55e:	e8 81       	ld	r30, Y
     560:	e2 60       	ori	r30, 0x02	; 2
     562:	e8 83       	st	Y, r30
     564:	20 c0       	rjmp	.+64     	; 0x5a6 <usart_set_baudrate+0xa2>
	if ((baud > max_rate) || (baud < min_rate)) {
		return false;
	}

	/* Check if double speed is enabled. */
	if (usart->UCSRnA & USART_U2X_bm) {
     566:	28 81       	ld	r18, Y
     568:	21 ff       	sbrs	r18, 1
     56a:	0a c0       	rjmp	.+20     	; 0x580 <usart_set_baudrate+0x7c>
		//baud *= 2;
		ubrr = (uint32_t)(cpu_hz / 8 / baud) - 1;
     56c:	a7 01       	movw	r20, r14
     56e:	96 01       	movw	r18, r12
     570:	0e 94 32 16 	call	0x2c64	; 0x2c64 <__udivmodsi4>
     574:	da 01       	movw	r26, r20
     576:	c9 01       	movw	r24, r18
     578:	01 97       	sbiw	r24, 0x01	; 1
     57a:	a1 09       	sbc	r26, r1
     57c:	b1 09       	sbc	r27, r1
     57e:	0b c0       	rjmp	.+22     	; 0x596 <usart_set_baudrate+0x92>
	} else {
		ubrr = (uint32_t)(cpu_hz / 16 / baud) - 1;
     580:	c5 01       	movw	r24, r10
     582:	b4 01       	movw	r22, r8
     584:	a7 01       	movw	r20, r14
     586:	96 01       	movw	r18, r12
     588:	0e 94 32 16 	call	0x2c64	; 0x2c64 <__udivmodsi4>
     58c:	da 01       	movw	r26, r20
     58e:	c9 01       	movw	r24, r18
     590:	01 97       	sbiw	r24, 0x01	; 1
     592:	a1 09       	sbc	r26, r1
     594:	b1 09       	sbc	r27, r1
	}

	usart->UBRR = ubrr;
     596:	9d 83       	std	Y+5, r25	; 0x05
     598:	8c 83       	std	Y+4, r24	; 0x04
	return true;
     59a:	81 e0       	ldi	r24, 0x01	; 1
     59c:	13 c0       	rjmp	.+38     	; 0x5c4 <usart_set_baudrate+0xc0>
	if( baud <= max_rate && baud > max_rate/2 ){
		usart_double_baud_enable(usart);
	}
    
	if ((baud > max_rate) || (baud < min_rate)) {
		return false;
     59e:	80 e0       	ldi	r24, 0x00	; 0
     5a0:	11 c0       	rjmp	.+34     	; 0x5c4 <usart_set_baudrate+0xc0>
     5a2:	80 e0       	ldi	r24, 0x00	; 0
     5a4:	0f c0       	rjmp	.+30     	; 0x5c4 <usart_set_baudrate+0xc0>

	if( baud <= max_rate && baud > max_rate/2 ){
		usart_double_baud_enable(usart);
	}
    
	if ((baud > max_rate) || (baud < min_rate)) {
     5a6:	0f 2e       	mov	r0, r31
     5a8:	f3 e1       	ldi	r31, 0x13	; 19
     5aa:	36 95       	lsr	r19
     5ac:	27 95       	ror	r18
     5ae:	17 95       	ror	r17
     5b0:	07 95       	ror	r16
     5b2:	fa 95       	dec	r31
     5b4:	d1 f7       	brne	.-12     	; 0x5aa <usart_set_baudrate+0xa6>
     5b6:	f0 2d       	mov	r31, r0
     5b8:	c0 16       	cp	r12, r16
     5ba:	d1 06       	cpc	r13, r17
     5bc:	e2 06       	cpc	r14, r18
     5be:	f3 06       	cpc	r15, r19
     5c0:	90 f6       	brcc	.-92     	; 0x566 <usart_set_baudrate+0x62>
     5c2:	ef cf       	rjmp	.-34     	; 0x5a2 <usart_set_baudrate+0x9e>
		ubrr = (uint32_t)(cpu_hz / 16 / baud) - 1;
	}

	usart->UBRR = ubrr;
	return true;
}
     5c4:	df 91       	pop	r29
     5c6:	cf 91       	pop	r28
     5c8:	1f 91       	pop	r17
     5ca:	0f 91       	pop	r16
     5cc:	ff 90       	pop	r15
     5ce:	ef 90       	pop	r14
     5d0:	df 90       	pop	r13
     5d2:	cf 90       	pop	r12
     5d4:	bf 90       	pop	r11
     5d6:	af 90       	pop	r10
     5d8:	9f 90       	pop	r9
     5da:	8f 90       	pop	r8
     5dc:	08 95       	ret

000005de <usart_init_rs232>:
 *
 * \retval true if the initialization was successful
 * \retval false if the initialization failed (error in baud rate calculation)
 */
bool usart_init_rs232(USART_t *usart, const usart_rs232_options_t *opt)
{
     5de:	0f 93       	push	r16
     5e0:	1f 93       	push	r17
     5e2:	cf 93       	push	r28
     5e4:	df 93       	push	r29
     5e6:	ec 01       	movw	r28, r24
     5e8:	8b 01       	movw	r16, r22
 * \brief usart Pointer to an USART module.
 */
static inline void usart_enable_module_clock(USART_t *usart)
{
#ifdef USARTA0
	if ((uintptr_t)usart == (uintptr_t)&UCSR0A) {
     5ea:	80 3c       	cpi	r24, 0xC0	; 192
     5ec:	91 05       	cpc	r25, r1
     5ee:	21 f4       	brne	.+8      	; 0x5f8 <usart_init_rs232+0x1a>
		sysclk_enable_module(POWER_RED_REG0, PRUSART0_bm);
     5f0:	62 e0       	ldi	r22, 0x02	; 2
     5f2:	80 e0       	ldi	r24, 0x00	; 0
     5f4:	e7 de       	rcall	.-562    	; 0x3c4 <sysclk_enable_module>
     5f6:	06 c0       	rjmp	.+12     	; 0x604 <usart_init_rs232+0x26>
	}
#endif
#ifdef USARTA1
	if ((uintptr_t)usart == (uintptr_t)&UCSR1A) {
     5f8:	88 3c       	cpi	r24, 0xC8	; 200
     5fa:	91 05       	cpc	r25, r1
     5fc:	19 f4       	brne	.+6      	; 0x604 <usart_init_rs232+0x26>
		sysclk_enable_module(POWER_RED_REG1, PRUSART1_bm);
     5fe:	61 e0       	ldi	r22, 0x01	; 1
     600:	81 e0       	ldi	r24, 0x01	; 1
     602:	e0 de       	rcall	.-576    	; 0x3c4 <sysclk_enable_module>
 * - 0x2        : IrDA mode.
 * - 0x3        : Master SPI mode.
 */
static inline void usart_set_mode(USART_t *usart, USART_CMODE_t usartmode)
{
	(usart)->UCSRnC = ((usart)->UCSRnC & (~USART_UMSEL01_gm)) | usartmode;
     604:	8a 81       	ldd	r24, Y+2	; 0x02
     606:	8f 73       	andi	r24, 0x3F	; 63
     608:	8a 83       	std	Y+2, r24	; 0x02
bool usart_init_rs232(USART_t *usart, const usart_rs232_options_t *opt)
{
	bool result;
	usart_enable_module_clock(usart);
	usart_set_mode(usart, USART_CMODE_ASYNCHRONOUS_gc);
	usart_format_set(usart, opt->charlength, opt->paritytype,
     60a:	f8 01       	movw	r30, r16
     60c:	26 81       	ldd	r18, Z+6	; 0x06
     60e:	35 81       	ldd	r19, Z+5	; 0x05
     610:	84 81       	ldd	r24, Z+4	; 0x04
 */
static inline void usart_format_set(USART_t *usart, USART_CHSIZE_t charSize,
		USART_PMODE_t parityMode, bool twoStopBits)
{
	(usart)->UCSRnC
		= ((usart)->UCSRnC &
     612:	9a 81       	ldd	r25, Y+2	; 0x02
     614:	48 2f       	mov	r20, r24
     616:	43 70       	andi	r20, 0x03	; 3
     618:	44 0f       	add	r20, r20
     61a:	99 7f       	andi	r25, 0xF9	; 249
     61c:	94 2b       	or	r25, r20
     61e:	9a 83       	std	Y+2, r25	; 0x02
			(~USART_CHSIZE01C_gm)) | ((charSize & 0x03)
			<< USART_CHSIZE01C_gp);
	(usart)->UCSRnB
		= ((usart)->UCSRnB &
     620:	99 81       	ldd	r25, Y+1	; 0x01
     622:	84 70       	andi	r24, 0x04	; 4
     624:	88 0f       	add	r24, r24
     626:	88 0f       	add	r24, r24
     628:	9b 7f       	andi	r25, 0xFB	; 251
     62a:	89 2b       	or	r24, r25
     62c:	89 83       	std	Y+1, r24	; 0x01
			(~USART_CHSIZE2_bm)) | ((charSize & 0x04)
			<< USART_CHSIZE2_bp);

	(usart)->UCSRnC = ((usart)->UCSRnC & (~USART_PMODE_gm)) | parityMode;
     62e:	8a 81       	ldd	r24, Y+2	; 0x02
     630:	8f 7c       	andi	r24, 0xCF	; 207
     632:	83 2b       	or	r24, r19
     634:	8a 83       	std	Y+2, r24	; 0x02

	(usart)->UCSRnC = ((usart)->UCSRnC & (~USART_STOPB_bm)) | (twoStopBits
     636:	9a 81       	ldd	r25, Y+2	; 0x02
     638:	97 7f       	andi	r25, 0xF7	; 247
     63a:	82 2f       	mov	r24, r18
     63c:	88 0f       	add	r24, r24
     63e:	88 0f       	add	r24, r24
     640:	88 0f       	add	r24, r24
     642:	89 2b       	or	r24, r25
     644:	8a 83       	std	Y+2, r24	; 0x02
			opt->stopbits);
	result = usart_set_baudrate(usart, opt->baudrate,
     646:	40 81       	ld	r20, Z
     648:	51 81       	ldd	r21, Z+1	; 0x01
     64a:	62 81       	ldd	r22, Z+2	; 0x02
     64c:	73 81       	ldd	r23, Z+3	; 0x03
     64e:	00 e0       	ldi	r16, 0x00	; 0
     650:	14 e2       	ldi	r17, 0x24	; 36
     652:	24 ef       	ldi	r18, 0xF4	; 244
     654:	30 e0       	ldi	r19, 0x00	; 0
     656:	ce 01       	movw	r24, r28
     658:	55 df       	rcall	.-342    	; 0x504 <usart_set_baudrate>
 *
 * \param usart Pointer to the USART module.
 */
static inline void usart_tx_enable(USART_t *usart)
{
	(usart)->UCSRnB |= USART_TXEN_bm;
     65a:	99 81       	ldd	r25, Y+1	; 0x01
     65c:	98 60       	ori	r25, 0x08	; 8
     65e:	99 83       	std	Y+1, r25	; 0x01
 *
 * \param usart Pointer to the USART module
 */
static inline void usart_rx_enable(USART_t *usart)
{
	(usart)->UCSRnB |= USART_RXEN_bm;
     660:	99 81       	ldd	r25, Y+1	; 0x01
     662:	90 61       	ori	r25, 0x10	; 16
     664:	99 83       	std	Y+1, r25	; 0x01
			sysclk_get_source_clock_hz());
	usart_tx_enable(usart);
	usart_rx_enable(usart);
	return result;
}
     666:	df 91       	pop	r29
     668:	cf 91       	pop	r28
     66a:	1f 91       	pop	r17
     66c:	0f 91       	pop	r16
     66e:	08 95       	ret

00000670 <usart_serial_getchar>:
	if (back >= 1) {
		return c;
	} else {
		return (-1);
	}
}
     670:	cf 93       	push	r28
     672:	df 93       	push	r29
     674:	eb 01       	movw	r28, r22
     676:	40 df       	rcall	.-384    	; 0x4f8 <usart_getchar>
     678:	88 83       	st	Y, r24
     67a:	df 91       	pop	r29
     67c:	cf 91       	pop	r28
     67e:	08 95       	ret

00000680 <usart_serial_putchar>:
     680:	34 cf       	rjmp	.-408    	; 0x4ea <usart_putchar>
     682:	08 95       	ret

00000684 <sio2host_init>:
     684:	0f 93       	push	r16
     686:	1f 93       	push	r17
     688:	cf 93       	push	r28
     68a:	df 93       	push	r29
     68c:	cd b7       	in	r28, 0x3d	; 61
     68e:	de b7       	in	r29, 0x3e	; 62
     690:	27 97       	sbiw	r28, 0x07	; 7
     692:	0f b6       	in	r0, 0x3f	; 63
     694:	f8 94       	cli
     696:	de bf       	out	0x3e, r29	; 62
     698:	0f be       	out	0x3f, r0	; 63
     69a:	cd bf       	out	0x3d, r28	; 61
     69c:	08 ec       	ldi	r16, 0xC8	; 200
     69e:	10 e0       	ldi	r17, 0x00	; 0
     6a0:	10 93 5c 09 	sts	0x095C, r17	; 0x80095c <stdio_base+0x1>
     6a4:	00 93 5b 09 	sts	0x095B, r16	; 0x80095b <stdio_base>
     6a8:	80 e4       	ldi	r24, 0x40	; 64
     6aa:	93 e0       	ldi	r25, 0x03	; 3
     6ac:	90 93 5a 09 	sts	0x095A, r25	; 0x80095a <ptr_put+0x1>
     6b0:	80 93 59 09 	sts	0x0959, r24	; 0x800959 <ptr_put>
     6b4:	88 e3       	ldi	r24, 0x38	; 56
     6b6:	93 e0       	ldi	r25, 0x03	; 3
     6b8:	90 93 58 09 	sts	0x0958, r25	; 0x800958 <ptr_get+0x1>
     6bc:	80 93 57 09 	sts	0x0957, r24	; 0x800957 <ptr_get>
     6c0:	ea e0       	ldi	r30, 0x0A	; 10
     6c2:	f2 e0       	ldi	r31, 0x02	; 2
     6c4:	84 81       	ldd	r24, Z+4	; 0x04
     6c6:	8d 83       	std	Y+5, r24	; 0x05
     6c8:	85 81       	ldd	r24, Z+5	; 0x05
     6ca:	8e 83       	std	Y+6, r24	; 0x06
     6cc:	86 81       	ldd	r24, Z+6	; 0x06
     6ce:	8f 83       	std	Y+7, r24	; 0x07
     6d0:	80 81       	ld	r24, Z
     6d2:	91 81       	ldd	r25, Z+1	; 0x01
     6d4:	a2 81       	ldd	r26, Z+2	; 0x02
     6d6:	b3 81       	ldd	r27, Z+3	; 0x03
     6d8:	89 83       	std	Y+1, r24	; 0x01
     6da:	9a 83       	std	Y+2, r25	; 0x02
     6dc:	ab 83       	std	Y+3, r26	; 0x03
     6de:	bc 83       	std	Y+4, r27	; 0x04
     6e0:	be 01       	movw	r22, r28
     6e2:	6f 5f       	subi	r22, 0xFF	; 255
     6e4:	7f 4f       	sbci	r23, 0xFF	; 255
     6e6:	88 ec       	ldi	r24, 0xC8	; 200
     6e8:	90 e0       	ldi	r25, 0x00	; 0
     6ea:	79 df       	rcall	.-270    	; 0x5de <usart_init_rs232>
     6ec:	65 e4       	ldi	r22, 0x45	; 69
     6ee:	72 e0       	ldi	r23, 0x02	; 2
     6f0:	8e e5       	ldi	r24, 0x5E	; 94
     6f2:	92 e0       	ldi	r25, 0x02	; 2
     6f4:	0e 94 cb 16 	call	0x2d96	; 0x2d96 <fdevopen>
     6f8:	f8 01       	movw	r30, r16
     6fa:	81 81       	ldd	r24, Z+1	; 0x01
     6fc:	80 68       	ori	r24, 0x80	; 128
     6fe:	81 83       	std	Z+1, r24	; 0x01
     700:	27 96       	adiw	r28, 0x07	; 7
     702:	0f b6       	in	r0, 0x3f	; 63
     704:	f8 94       	cli
     706:	de bf       	out	0x3e, r29	; 62
     708:	0f be       	out	0x3f, r0	; 63
     70a:	cd bf       	out	0x3d, r28	; 61
     70c:	df 91       	pop	r29
     70e:	cf 91       	pop	r28
     710:	1f 91       	pop	r17
     712:	0f 91       	pop	r16
     714:	08 95       	ret

00000716 <sio2host_tx>:
     716:	ff 92       	push	r15
     718:	0f 93       	push	r16
     71a:	1f 93       	push	r17
     71c:	cf 93       	push	r28
     71e:	df 93       	push	r29
     720:	8c 01       	movw	r16, r24
     722:	f6 2e       	mov	r15, r22
     724:	c6 2f       	mov	r28, r22
     726:	d0 e0       	ldi	r29, 0x00	; 0
     728:	ae 01       	movw	r20, r28
     72a:	b8 01       	movw	r22, r16
     72c:	88 ec       	ldi	r24, 0xC8	; 200
     72e:	90 e0       	ldi	r25, 0x00	; 0
     730:	78 de       	rcall	.-784    	; 0x422 <usart_serial_write_packet>
     732:	81 11       	cpse	r24, r1
     734:	f9 cf       	rjmp	.-14     	; 0x728 <sio2host_tx+0x12>
     736:	8f 2d       	mov	r24, r15
     738:	df 91       	pop	r29
     73a:	cf 91       	pop	r28
     73c:	1f 91       	pop	r17
     73e:	0f 91       	pop	r16
     740:	ff 90       	pop	r15
     742:	08 95       	ret

00000744 <sio2host_rx>:
     744:	dc 01       	movw	r26, r24
     746:	80 91 1e 02 	lds	r24, 0x021E	; 0x80021e <serial_rx_buf_tail>
     74a:	90 91 1f 02 	lds	r25, 0x021F	; 0x80021f <serial_rx_buf_head>
     74e:	89 17       	cp	r24, r25
     750:	28 f0       	brcs	.+10     	; 0x75c <sio2host_rx+0x18>
     752:	28 2f       	mov	r18, r24
     754:	29 1b       	sub	r18, r25
     756:	20 93 1d 02 	sts	0x021D, r18	; 0x80021d <serial_rx_count>
     75a:	05 c0       	rjmp	.+10     	; 0x766 <sio2host_rx+0x22>
     75c:	2c e9       	ldi	r18, 0x9C	; 156
     75e:	28 0f       	add	r18, r24
     760:	29 1b       	sub	r18, r25
     762:	20 93 1d 02 	sts	0x021D, r18	; 0x80021d <serial_rx_count>
     766:	90 91 1d 02 	lds	r25, 0x021D	; 0x80021d <serial_rx_count>
     76a:	99 23       	and	r25, r25
     76c:	31 f1       	breq	.+76     	; 0x7ba <sio2host_rx+0x76>
     76e:	9c 39       	cpi	r25, 0x9C	; 156
     770:	40 f0       	brcs	.+16     	; 0x782 <sio2host_rx+0x3e>
     772:	80 93 1f 02 	sts	0x021F, r24	; 0x80021f <serial_rx_buf_head>
     776:	8c e9       	ldi	r24, 0x9C	; 156
     778:	80 93 1d 02 	sts	0x021D, r24	; 0x80021d <serial_rx_count>
     77c:	6c 39       	cpi	r22, 0x9C	; 156
     77e:	38 f4       	brcc	.+14     	; 0x78e <sio2host_rx+0x4a>
     780:	03 c0       	rjmp	.+6      	; 0x788 <sio2host_rx+0x44>
     782:	96 17       	cp	r25, r22
     784:	08 f4       	brcc	.+2      	; 0x788 <sio2host_rx+0x44>
     786:	69 2f       	mov	r22, r25
     788:	61 11       	cpse	r22, r1
     78a:	02 c0       	rjmp	.+4      	; 0x790 <sio2host_rx+0x4c>
     78c:	18 c0       	rjmp	.+48     	; 0x7be <sio2host_rx+0x7a>
     78e:	6c e9       	ldi	r22, 0x9C	; 156
     790:	90 91 1f 02 	lds	r25, 0x021F	; 0x80021f <serial_rx_buf_head>
     794:	26 2f       	mov	r18, r22
     796:	e9 2f       	mov	r30, r25
     798:	f0 e0       	ldi	r31, 0x00	; 0
     79a:	e0 5e       	subi	r30, 0xE0	; 224
     79c:	fd 4f       	sbci	r31, 0xFD	; 253
     79e:	30 81       	ld	r19, Z
     7a0:	3d 93       	st	X+, r19
     7a2:	21 50       	subi	r18, 0x01	; 1
     7a4:	9b 39       	cpi	r25, 0x9B	; 155
     7a6:	11 f0       	breq	.+4      	; 0x7ac <sio2host_rx+0x68>
     7a8:	9f 5f       	subi	r25, 0xFF	; 255
     7aa:	01 c0       	rjmp	.+2      	; 0x7ae <sio2host_rx+0x6a>
     7ac:	90 e0       	ldi	r25, 0x00	; 0
     7ae:	21 11       	cpse	r18, r1
     7b0:	f2 cf       	rjmp	.-28     	; 0x796 <sio2host_rx+0x52>
     7b2:	90 93 1f 02 	sts	0x021F, r25	; 0x80021f <serial_rx_buf_head>
     7b6:	86 2f       	mov	r24, r22
     7b8:	08 95       	ret
     7ba:	80 e0       	ldi	r24, 0x00	; 0
     7bc:	08 95       	ret
     7be:	80 e0       	ldi	r24, 0x00	; 0
     7c0:	08 95       	ret

000007c2 <sio2host_putchar>:
     7c2:	cf 93       	push	r28
     7c4:	df 93       	push	r29
     7c6:	1f 92       	push	r1
     7c8:	cd b7       	in	r28, 0x3d	; 61
     7ca:	de b7       	in	r29, 0x3e	; 62
     7cc:	89 83       	std	Y+1, r24	; 0x01
     7ce:	61 e0       	ldi	r22, 0x01	; 1
     7d0:	ce 01       	movw	r24, r28
     7d2:	01 96       	adiw	r24, 0x01	; 1
     7d4:	a0 df       	rcall	.-192    	; 0x716 <sio2host_tx>
     7d6:	0f 90       	pop	r0
     7d8:	df 91       	pop	r29
     7da:	cf 91       	pop	r28
     7dc:	08 95       	ret

000007de <__vector_36>:
#if SAMD || SAMR21 || SAML21 || SAMR30 || SAMR34 || SAMR35
void USART_HOST_ISR_VECT(uint8_t instance)
#else
USART_HOST_ISR_VECT()
#endif
{
     7de:	1f 92       	push	r1
     7e0:	0f 92       	push	r0
     7e2:	0f b6       	in	r0, 0x3f	; 63
     7e4:	0f 92       	push	r0
     7e6:	11 24       	eor	r1, r1
     7e8:	0b b6       	in	r0, 0x3b	; 59
     7ea:	0f 92       	push	r0
     7ec:	2f 93       	push	r18
     7ee:	3f 93       	push	r19
     7f0:	4f 93       	push	r20
     7f2:	5f 93       	push	r21
     7f4:	6f 93       	push	r22
     7f6:	7f 93       	push	r23
     7f8:	8f 93       	push	r24
     7fa:	9f 93       	push	r25
     7fc:	af 93       	push	r26
     7fe:	bf 93       	push	r27
     800:	ef 93       	push	r30
     802:	ff 93       	push	r31
     804:	cf 93       	push	r28
     806:	df 93       	push	r29
     808:	1f 92       	push	r1
     80a:	cd b7       	in	r28, 0x3d	; 61
     80c:	de b7       	in	r29, 0x3e	; 62
#if SAMD || SAMR21 || SAML21 || SAMR30 || SAMR34 || SAMR35
	usart_serial_read_packet(&host_uart_module, &temp, 1);
#elif SAM4E || SAM4S
	usart_serial_read_packet((Usart *)USART_HOST, &temp, 1);
#else
    usart_serial_read_packet(USART_HOST, &temp, 1);
     80e:	41 e0       	ldi	r20, 0x01	; 1
     810:	50 e0       	ldi	r21, 0x00	; 0
     812:	be 01       	movw	r22, r28
     814:	6f 5f       	subi	r22, 0xFF	; 255
     816:	7f 4f       	sbci	r23, 0xFF	; 255
     818:	88 ec       	ldi	r24, 0xC8	; 200
     81a:	90 e0       	ldi	r25, 0x00	; 0
     81c:	1c de       	rcall	.-968    	; 0x456 <usart_serial_read_packet>
#endif

	/* Introducing critical section to avoid buffer corruption. */
	cpu_irq_disable();
     81e:	f8 94       	cli

	/* The number of data in the receive buffer is incremented and the
	 * buffer is updated. */

	serial_rx_buf[serial_rx_buf_tail] = temp;
     820:	80 91 1e 02 	lds	r24, 0x021E	; 0x80021e <serial_rx_buf_tail>
     824:	e8 2f       	mov	r30, r24
     826:	f0 e0       	ldi	r31, 0x00	; 0
     828:	e0 5e       	subi	r30, 0xE0	; 224
     82a:	fd 4f       	sbci	r31, 0xFD	; 253
     82c:	99 81       	ldd	r25, Y+1	; 0x01
     82e:	90 83       	st	Z, r25

	if ((SERIAL_RX_BUF_SIZE_HOST - 1) == serial_rx_buf_tail) {
     830:	8b 39       	cpi	r24, 0x9B	; 155
     832:	19 f4       	brne	.+6      	; 0x83a <__vector_36+0x5c>
		/* Reached the end of buffer, revert back to beginning of
		 * buffer. */
		serial_rx_buf_tail = 0x00;
     834:	10 92 1e 02 	sts	0x021E, r1	; 0x80021e <serial_rx_buf_tail>
     838:	03 c0       	rjmp	.+6      	; 0x840 <__vector_36+0x62>
	} else {
		serial_rx_buf_tail++;
     83a:	8f 5f       	subi	r24, 0xFF	; 255
     83c:	80 93 1e 02 	sts	0x021E, r24	; 0x80021e <serial_rx_buf_tail>
	}

	cpu_irq_enable();
     840:	78 94       	sei
}
     842:	0f 90       	pop	r0
     844:	df 91       	pop	r29
     846:	cf 91       	pop	r28
     848:	ff 91       	pop	r31
     84a:	ef 91       	pop	r30
     84c:	bf 91       	pop	r27
     84e:	af 91       	pop	r26
     850:	9f 91       	pop	r25
     852:	8f 91       	pop	r24
     854:	7f 91       	pop	r23
     856:	6f 91       	pop	r22
     858:	5f 91       	pop	r21
     85a:	4f 91       	pop	r20
     85c:	3f 91       	pop	r19
     85e:	2f 91       	pop	r18
     860:	0f 90       	pop	r0
     862:	0b be       	out	0x3b, r0	; 59
     864:	0f 90       	pop	r0
     866:	0f be       	out	0x3f, r0	; 63
     868:	0f 90       	pop	r0
     86a:	1f 90       	pop	r1
     86c:	18 95       	reti

0000086e <NWK_Init>:

		cl += 25;
	}

	return 255;
}
     86e:	ed e5       	ldi	r30, 0x5D	; 93
     870:	f9 e0       	ldi	r31, 0x09	; 9
     872:	14 82       	std	Z+4, r1	; 0x04
     874:	15 82       	std	Z+5, r1	; 0x05
     876:	11 82       	std	Z+1, r1	; 0x01
     878:	10 82       	st	Z, r1
     87a:	17 aa       	std	Z+55, r1	; 0x37
     87c:	16 aa       	std	Z+54, r1	; 0x36
     87e:	e3 e6       	ldi	r30, 0x63	; 99
     880:	f9 e0       	ldi	r31, 0x09	; 9
     882:	83 e8       	ldi	r24, 0x83	; 131
     884:	99 e0       	ldi	r25, 0x09	; 9
     886:	11 92       	st	Z+, r1
     888:	11 92       	st	Z+, r1
     88a:	e8 17       	cp	r30, r24
     88c:	f9 07       	cpc	r31, r25
     88e:	d9 f7       	brne	.-10     	; 0x886 <NWK_Init+0x18>
     890:	ad d7       	rcall	.+3930   	; 0x17ec <nwkTxInit>
     892:	65 d3       	rcall	.+1738   	; 0xf5e <nwkRxInit>
     894:	18 d1       	rcall	.+560    	; 0xac6 <nwkFrameInit>
     896:	43 d0       	rcall	.+134    	; 0x91e <nwkDataReqInit>
     898:	96 d1       	rcall	.+812    	; 0xbc6 <nwkRouteInit>
     89a:	04 c6       	rjmp	.+3080   	; 0x14a4 <nwkSecurityInit>
     89c:	08 95       	ret

0000089e <NWK_SetAddr>:
     89e:	90 93 5e 09 	sts	0x095E, r25	; 0x80095e <nwkIb+0x1>
     8a2:	80 93 5d 09 	sts	0x095D, r24	; 0x80095d <nwkIb>
     8a6:	0c 94 15 0e 	jmp	0x1c2a	; 0x1c2a <PHY_SetShortAddr>
     8aa:	08 95       	ret

000008ac <NWK_SetPanId>:
     8ac:	90 93 60 09 	sts	0x0960, r25	; 0x800960 <nwkIb+0x3>
     8b0:	80 93 5f 09 	sts	0x095F, r24	; 0x80095f <nwkIb+0x2>
     8b4:	0c 94 03 0e 	jmp	0x1c06	; 0x1c06 <PHY_SetPanId>
     8b8:	08 95       	ret

000008ba <NWK_OpenEndpoint>:
     8ba:	e8 2f       	mov	r30, r24
     8bc:	f0 e0       	ldi	r31, 0x00	; 0
     8be:	ee 0f       	add	r30, r30
     8c0:	ff 1f       	adc	r31, r31
     8c2:	ed 59       	subi	r30, 0x9D	; 157
     8c4:	f6 4f       	sbci	r31, 0xF6	; 246
     8c6:	71 83       	std	Z+1, r23	; 0x01
     8c8:	60 83       	st	Z, r22
     8ca:	08 95       	ret

000008cc <NWK_TaskHandler>:
/*************************************************************************//**
*  @brief Network layer task handler
*****************************************************************************/
void NWK_TaskHandler(void)
{
	nwkRxTaskHandler();
     8cc:	9a d3       	rcall	.+1844   	; 0x1002 <nwkRxTaskHandler>
	nwkTxTaskHandler();
     8ce:	0e 94 ff 0c 	call	0x19fe	; 0x19fe <nwkTxTaskHandler>
	nwkDataReqTaskHandler();
#ifdef NWK_ENABLE_SECURITY
	nwkSecurityTaskHandler();
     8d2:	4e d0       	rcall	.+156    	; 0x970 <nwkDataReqTaskHandler>
     8d4:	3e c6       	rjmp	.+3196   	; 0x1552 <nwkSecurityTaskHandler>
     8d6:	08 95       	ret

000008d8 <nwkDataReqTxConf>:
*  @brief Frame transmission confirmation handler
*  @param[in] frame Pointer to the sent frame
*****************************************************************************/
static void nwkDataReqTxConf(NwkFrame_t *frame)
{
	for (NWK_DataReq_t *req = nwkDataReqQueue; req; req = req->next) {
     8d8:	e0 91 bc 02 	lds	r30, 0x02BC	; 0x8002bc <nwkDataReqQueue>
     8dc:	f0 91 bd 02 	lds	r31, 0x02BD	; 0x8002bd <nwkDataReqQueue+0x1>
     8e0:	30 97       	sbiw	r30, 0x00	; 0
     8e2:	d9 f0       	breq	.+54     	; 0x91a <nwkDataReqTxConf+0x42>
		if (req->frame == frame) {
     8e4:	22 81       	ldd	r18, Z+2	; 0x02
     8e6:	33 81       	ldd	r19, Z+3	; 0x03
     8e8:	82 17       	cp	r24, r18
     8ea:	93 07       	cpc	r25, r19
     8ec:	89 f4       	brne	.+34     	; 0x910 <nwkDataReqTxConf+0x38>
     8ee:	05 c0       	rjmp	.+10     	; 0x8fa <nwkDataReqTxConf+0x22>
     8f0:	22 81       	ldd	r18, Z+2	; 0x02
     8f2:	33 81       	ldd	r19, Z+3	; 0x03
     8f4:	28 17       	cp	r18, r24
     8f6:	39 07       	cpc	r19, r25
     8f8:	59 f4       	brne	.+22     	; 0x910 <nwkDataReqTxConf+0x38>
			req->status = frame->tx.status;
     8fa:	dc 01       	movw	r26, r24
     8fc:	ad 57       	subi	r26, 0x7D	; 125
     8fe:	bf 4f       	sbci	r27, 0xFF	; 255
     900:	2c 91       	ld	r18, X
     902:	27 87       	std	Z+15, r18	; 0x0f
			req->control = frame->tx.control;
     904:	13 96       	adiw	r26, 0x03	; 3
     906:	2c 91       	ld	r18, X
     908:	20 8b       	std	Z+16, r18	; 0x10
			req->state = NWK_DATA_REQ_STATE_CONFIRM;
     90a:	22 e0       	ldi	r18, 0x02	; 2
     90c:	24 83       	std	Z+4, r18	; 0x04
			break;
     90e:	05 c0       	rjmp	.+10     	; 0x91a <nwkDataReqTxConf+0x42>
*  @brief Frame transmission confirmation handler
*  @param[in] frame Pointer to the sent frame
*****************************************************************************/
static void nwkDataReqTxConf(NwkFrame_t *frame)
{
	for (NWK_DataReq_t *req = nwkDataReqQueue; req; req = req->next) {
     910:	01 90       	ld	r0, Z+
     912:	f0 81       	ld	r31, Z
     914:	e0 2d       	mov	r30, r0
     916:	30 97       	sbiw	r30, 0x00	; 0
     918:	59 f7       	brne	.-42     	; 0x8f0 <nwkDataReqTxConf+0x18>
			req->state = NWK_DATA_REQ_STATE_CONFIRM;
			break;
		}
	}

	nwkFrameFree(frame);
     91a:	12 c1       	rjmp	.+548    	; 0xb40 <nwkFrameFree>
     91c:	08 95       	ret

0000091e <nwkDataReqInit>:
/*************************************************************************//**
*  @brief Initializes the Data Request module
*****************************************************************************/
void nwkDataReqInit(void)
{
	nwkDataReqQueue = NULL;
     91e:	10 92 bd 02 	sts	0x02BD, r1	; 0x8002bd <nwkDataReqQueue+0x1>
     922:	10 92 bc 02 	sts	0x02BC, r1	; 0x8002bc <nwkDataReqQueue>
     926:	08 95       	ret

00000928 <NWK_DataReq>:
/*************************************************************************//**
*  @brief Adds request @a req to the queue of outgoing requests
*  @param[in] req Pointer to the request parameters
*****************************************************************************/
void NWK_DataReq(NWK_DataReq_t *req)
{
     928:	fc 01       	movw	r30, r24
	req->state = NWK_DATA_REQ_STATE_INITIAL;
     92a:	14 82       	std	Z+4, r1	; 0x04
	req->status = NWK_SUCCESS_STATUS;
     92c:	17 86       	std	Z+15, r1	; 0x0f
	req->frame = NULL;
     92e:	13 82       	std	Z+3, r1	; 0x03
     930:	12 82       	std	Z+2, r1	; 0x02

	nwkIb.lock++;
     932:	ad e5       	ldi	r26, 0x5D	; 93
     934:	b9 e0       	ldi	r27, 0x09	; 9
     936:	d6 96       	adiw	r26, 0x36	; 54
     938:	8d 91       	ld	r24, X+
     93a:	9c 91       	ld	r25, X
     93c:	d7 97       	sbiw	r26, 0x37	; 55
     93e:	01 96       	adiw	r24, 0x01	; 1
     940:	d7 96       	adiw	r26, 0x37	; 55
     942:	9c 93       	st	X, r25
     944:	8e 93       	st	-X, r24
     946:	d6 97       	sbiw	r26, 0x36	; 54

	if (NULL == nwkDataReqQueue) {
     948:	80 91 bc 02 	lds	r24, 0x02BC	; 0x8002bc <nwkDataReqQueue>
     94c:	90 91 bd 02 	lds	r25, 0x02BD	; 0x8002bd <nwkDataReqQueue+0x1>
     950:	00 97       	sbiw	r24, 0x00	; 0
     952:	39 f4       	brne	.+14     	; 0x962 <NWK_DataReq+0x3a>
		req->next = NULL;
     954:	11 82       	std	Z+1, r1	; 0x01
     956:	10 82       	st	Z, r1
		nwkDataReqQueue = req;
     958:	f0 93 bd 02 	sts	0x02BD, r31	; 0x8002bd <nwkDataReqQueue+0x1>
     95c:	e0 93 bc 02 	sts	0x02BC, r30	; 0x8002bc <nwkDataReqQueue>
     960:	08 95       	ret
	} else {
		req->next = nwkDataReqQueue;
     962:	91 83       	std	Z+1, r25	; 0x01
     964:	80 83       	st	Z, r24
		nwkDataReqQueue = req;
     966:	f0 93 bd 02 	sts	0x02BD, r31	; 0x8002bd <nwkDataReqQueue+0x1>
     96a:	e0 93 bc 02 	sts	0x02BC, r30	; 0x8002bc <nwkDataReqQueue>
     96e:	08 95       	ret

00000970 <nwkDataReqTaskHandler>:

/*************************************************************************//**
*  @brief Data Request module task handler
*****************************************************************************/
void nwkDataReqTaskHandler(void)
{
     970:	0f 93       	push	r16
     972:	1f 93       	push	r17
     974:	cf 93       	push	r28
     976:	df 93       	push	r29
	for (NWK_DataReq_t *req = nwkDataReqQueue; req; req = req->next) {
     978:	e0 91 bc 02 	lds	r30, 0x02BC	; 0x8002bc <nwkDataReqQueue>
     97c:	f0 91 bd 02 	lds	r31, 0x02BD	; 0x8002bd <nwkDataReqQueue+0x1>
     980:	30 97       	sbiw	r30, 0x00	; 0
     982:	09 f4       	brne	.+2      	; 0x986 <nwkDataReqTaskHandler+0x16>
     984:	9b c0       	rjmp	.+310    	; 0xabc <nwkDataReqTaskHandler+0x14c>
     986:	ef 01       	movw	r28, r30
		switch (req->state) {
     988:	8c 81       	ldd	r24, Y+4	; 0x04
     98a:	88 23       	and	r24, r24
     98c:	21 f0       	breq	.+8      	; 0x996 <nwkDataReqTaskHandler+0x26>
     98e:	82 30       	cpi	r24, 0x02	; 2
     990:	09 f4       	brne	.+2      	; 0x994 <nwkDataReqTaskHandler+0x24>
     992:	6e c0       	rjmp	.+220    	; 0xa70 <nwkDataReqTaskHandler+0x100>
     994:	8d c0       	rjmp	.+282    	; 0xab0 <nwkDataReqTaskHandler+0x140>
*****************************************************************************/
static void nwkDataReqSendFrame(NWK_DataReq_t *req)
{
	NwkFrame_t *frame;

	if (NULL == (frame = nwkFrameAlloc())) {
     996:	9e d0       	rcall	.+316    	; 0xad4 <nwkFrameAlloc>
     998:	8c 01       	movw	r16, r24
     99a:	00 97       	sbiw	r24, 0x00	; 0
     99c:	21 f4       	brne	.+8      	; 0x9a6 <nwkDataReqTaskHandler+0x36>
		req->state = NWK_DATA_REQ_STATE_CONFIRM;
     99e:	82 e0       	ldi	r24, 0x02	; 2
     9a0:	8c 83       	std	Y+4, r24	; 0x04
		req->status = NWK_OUT_OF_MEMORY_STATUS;
     9a2:	8f 87       	std	Y+15, r24	; 0x0f
     9a4:	8b c0       	rjmp	.+278    	; 0xabc <nwkDataReqTaskHandler+0x14c>
		return;
	}

	req->frame = frame;
     9a6:	9b 83       	std	Y+3, r25	; 0x03
     9a8:	8a 83       	std	Y+2, r24	; 0x02
	req->state = NWK_DATA_REQ_STATE_WAIT_CONF;
     9aa:	81 e0       	ldi	r24, 0x01	; 1
     9ac:	8c 83       	std	Y+4, r24	; 0x04

	frame->tx.confirm = nwkDataReqTxConf;
     9ae:	f8 01       	movw	r30, r16
     9b0:	e9 57       	subi	r30, 0x79	; 121
     9b2:	ff 4f       	sbci	r31, 0xFF	; 255
     9b4:	8c e6       	ldi	r24, 0x6C	; 108
     9b6:	94 e0       	ldi	r25, 0x04	; 4
     9b8:	91 83       	std	Z+1, r25	; 0x01
     9ba:	80 83       	st	Z, r24
	frame->tx.control = req->options &
     9bc:	31 97       	sbiw	r30, 0x01	; 1
     9be:	89 85       	ldd	r24, Y+9	; 0x09
     9c0:	82 fb       	bst	r24, 2
     9c2:	88 27       	eor	r24, r24
     9c4:	80 f9       	bld	r24, 0
     9c6:	80 83       	st	Z, r24
			NWK_OPT_BROADCAST_PAN_ID ?
			NWK_TX_CONTROL_BROADCAST_PAN_ID
			: 0;

	frame->header.nwkFcf.ackRequest = req->options &
     9c8:	99 85       	ldd	r25, Y+9	; 0x09
     9ca:	d8 01       	movw	r26, r16
     9cc:	1b 96       	adiw	r26, 0x0b	; 11
     9ce:	8c 91       	ld	r24, X
     9d0:	1b 97       	sbiw	r26, 0x0b	; 11
     9d2:	90 fb       	bst	r25, 0
     9d4:	80 f9       	bld	r24, 0
     9d6:	1b 96       	adiw	r26, 0x0b	; 11
     9d8:	8c 93       	st	X, r24
     9da:	1b 97       	sbiw	r26, 0x0b	; 11
			NWK_OPT_ACK_REQUEST ? 1 : 0;
	frame->header.nwkFcf.linkLocal = req->options &
     9dc:	99 85       	ldd	r25, Y+9	; 0x09
     9de:	93 fb       	bst	r25, 3
     9e0:	99 27       	eor	r25, r25
     9e2:	90 f9       	bld	r25, 0
     9e4:	90 fb       	bst	r25, 0
     9e6:	82 f9       	bld	r24, 2
     9e8:	1b 96       	adiw	r26, 0x0b	; 11
     9ea:	8c 93       	st	X, r24
     9ec:	1b 97       	sbiw	r26, 0x0b	; 11
			NWK_OPT_LINK_LOCAL ? 1 : 0;

#ifdef NWK_ENABLE_SECURITY
	frame->header.nwkFcf.security = req->options &
     9ee:	99 85       	ldd	r25, Y+9	; 0x09
     9f0:	96 95       	lsr	r25
     9f2:	91 70       	andi	r25, 0x01	; 1
     9f4:	90 fb       	bst	r25, 0
     9f6:	81 f9       	bld	r24, 1
     9f8:	1b 96       	adiw	r26, 0x0b	; 11
     9fa:	8c 93       	st	X, r24
     9fc:	1b 97       	sbiw	r26, 0x0b	; 11
		frame->payload += sizeof(NwkFrameMulticastHeader_t);
		frame->size += sizeof(NwkFrameMulticastHeader_t);
	}
#endif

	frame->header.nwkSeq = ++nwkIb.nwkSeqNum;
     9fe:	ed e5       	ldi	r30, 0x5D	; 93
     a00:	f9 e0       	ldi	r31, 0x09	; 9
     a02:	84 81       	ldd	r24, Z+4	; 0x04
     a04:	8f 5f       	subi	r24, 0xFF	; 255
     a06:	84 83       	std	Z+4, r24	; 0x04
     a08:	1c 96       	adiw	r26, 0x0c	; 12
     a0a:	8c 93       	st	X, r24
     a0c:	1c 97       	sbiw	r26, 0x0c	; 12
	frame->header.nwkSrcAddr = nwkIb.addr;
     a0e:	80 81       	ld	r24, Z
     a10:	91 81       	ldd	r25, Z+1	; 0x01
     a12:	1e 96       	adiw	r26, 0x0e	; 14
     a14:	9c 93       	st	X, r25
     a16:	8e 93       	st	-X, r24
     a18:	1d 97       	sbiw	r26, 0x0d	; 13
	frame->header.nwkDstAddr = req->dstAddr;
     a1a:	8d 81       	ldd	r24, Y+5	; 0x05
     a1c:	9e 81       	ldd	r25, Y+6	; 0x06
     a1e:	50 96       	adiw	r26, 0x10	; 16
     a20:	9c 93       	st	X, r25
     a22:	8e 93       	st	-X, r24
     a24:	1f 97       	sbiw	r26, 0x0f	; 15
	frame->header.nwkSrcEndpoint = req->srcEndpoint;
     a26:	88 85       	ldd	r24, Y+8	; 0x08
     a28:	98 2f       	mov	r25, r24
     a2a:	9f 70       	andi	r25, 0x0F	; 15
     a2c:	51 96       	adiw	r26, 0x11	; 17
     a2e:	8c 91       	ld	r24, X
     a30:	51 97       	sbiw	r26, 0x11	; 17
     a32:	80 7f       	andi	r24, 0xF0	; 240
     a34:	89 2b       	or	r24, r25
     a36:	51 96       	adiw	r26, 0x11	; 17
     a38:	8c 93       	st	X, r24
     a3a:	51 97       	sbiw	r26, 0x11	; 17
	frame->header.nwkDstEndpoint = req->dstEndpoint;
     a3c:	9f 81       	ldd	r25, Y+7	; 0x07
     a3e:	92 95       	swap	r25
     a40:	90 7f       	andi	r25, 0xF0	; 240
     a42:	8f 70       	andi	r24, 0x0F	; 15
     a44:	89 2b       	or	r24, r25
     a46:	51 96       	adiw	r26, 0x11	; 17
     a48:	8c 93       	st	X, r24

	memcpy(frame->payload, req->data, req->size);
     a4a:	f8 01       	movw	r30, r16
     a4c:	ef 57       	subi	r30, 0x7F	; 127
     a4e:	ff 4f       	sbci	r31, 0xFF	; 255
     a50:	4c 85       	ldd	r20, Y+12	; 0x0c
     a52:	50 e0       	ldi	r21, 0x00	; 0
     a54:	6a 85       	ldd	r22, Y+10	; 0x0a
     a56:	7b 85       	ldd	r23, Y+11	; 0x0b
     a58:	80 81       	ld	r24, Z
     a5a:	91 81       	ldd	r25, Z+1	; 0x01
     a5c:	0e 94 c2 16 	call	0x2d84	; 0x2d84 <memcpy>
	frame->size += req->size;
     a60:	f8 01       	movw	r30, r16
     a62:	91 81       	ldd	r25, Z+1	; 0x01
     a64:	8c 85       	ldd	r24, Y+12	; 0x0c
     a66:	89 0f       	add	r24, r25
     a68:	81 83       	std	Z+1, r24	; 0x01

	nwkTxFrame(frame);
     a6a:	c8 01       	movw	r24, r16
     a6c:	e2 d6       	rcall	.+3524   	; 0x1832 <nwkTxFrame>
     a6e:	26 c0       	rjmp	.+76     	; 0xabc <nwkDataReqTaskHandler+0x14c>
*  @brief Confirms request @req to the application and remove it from the queue
*  @param[in] req Pointer to the request parameters
*****************************************************************************/
static void nwkDataReqConfirm(NWK_DataReq_t *req)
{
	if (nwkDataReqQueue == req) {
     a70:	ec 17       	cp	r30, r28
     a72:	fd 07       	cpc	r31, r29
     a74:	41 f4       	brne	.+16     	; 0xa86 <nwkDataReqTaskHandler+0x116>
		nwkDataReqQueue = nwkDataReqQueue->next;
     a76:	80 81       	ld	r24, Z
     a78:	91 81       	ldd	r25, Z+1	; 0x01
     a7a:	90 93 bd 02 	sts	0x02BD, r25	; 0x8002bd <nwkDataReqQueue+0x1>
     a7e:	80 93 bc 02 	sts	0x02BC, r24	; 0x8002bc <nwkDataReqQueue>
     a82:	0a c0       	rjmp	.+20     	; 0xa98 <nwkDataReqTaskHandler+0x128>
	} else {
		NWK_DataReq_t *prev = nwkDataReqQueue;
		while (prev->next != req) {
			prev = prev->next;
     a84:	fc 01       	movw	r30, r24
{
	if (nwkDataReqQueue == req) {
		nwkDataReqQueue = nwkDataReqQueue->next;
	} else {
		NWK_DataReq_t *prev = nwkDataReqQueue;
		while (prev->next != req) {
     a86:	80 81       	ld	r24, Z
     a88:	91 81       	ldd	r25, Z+1	; 0x01
     a8a:	8c 17       	cp	r24, r28
     a8c:	9d 07       	cpc	r25, r29
     a8e:	d1 f7       	brne	.-12     	; 0xa84 <nwkDataReqTaskHandler+0x114>
			prev = prev->next;
		}
		prev->next = ((NWK_DataReq_t *)prev->next)->next;
     a90:	88 81       	ld	r24, Y
     a92:	99 81       	ldd	r25, Y+1	; 0x01
     a94:	91 83       	std	Z+1, r25	; 0x01
     a96:	80 83       	st	Z, r24
	}

	nwkIb.lock--;
     a98:	ed e5       	ldi	r30, 0x5D	; 93
     a9a:	f9 e0       	ldi	r31, 0x09	; 9
     a9c:	86 a9       	ldd	r24, Z+54	; 0x36
     a9e:	97 a9       	ldd	r25, Z+55	; 0x37
     aa0:	01 97       	sbiw	r24, 0x01	; 1
     aa2:	97 ab       	std	Z+55, r25	; 0x37
     aa4:	86 ab       	std	Z+54, r24	; 0x36
	req->confirm(req);
     aa6:	ed 85       	ldd	r30, Y+13	; 0x0d
     aa8:	fe 85       	ldd	r31, Y+14	; 0x0e
     aaa:	ce 01       	movw	r24, r28
     aac:	19 95       	eicall
     aae:	06 c0       	rjmp	.+12     	; 0xabc <nwkDataReqTaskHandler+0x14c>
/*************************************************************************//**
*  @brief Data Request module task handler
*****************************************************************************/
void nwkDataReqTaskHandler(void)
{
	for (NWK_DataReq_t *req = nwkDataReqQueue; req; req = req->next) {
     ab0:	09 90       	ld	r0, Y+
     ab2:	d8 81       	ld	r29, Y
     ab4:	c0 2d       	mov	r28, r0
     ab6:	20 97       	sbiw	r28, 0x00	; 0
     ab8:	09 f0       	breq	.+2      	; 0xabc <nwkDataReqTaskHandler+0x14c>
     aba:	66 cf       	rjmp	.-308    	; 0x988 <nwkDataReqTaskHandler+0x18>

		default:
			break;
		}
	}
}
     abc:	df 91       	pop	r29
     abe:	cf 91       	pop	r28
     ac0:	1f 91       	pop	r17
     ac2:	0f 91       	pop	r16
     ac4:	08 95       	ret

00000ac6 <nwkFrameInit>:
*  @brief Initializes the Frame module
*****************************************************************************/
void nwkFrameInit(void)
{
	for (uint8_t i = 0; i < NWK_BUFFERS_AMOUNT; i++) {
		nwkFrameFrames[i].state = NWK_FRAME_STATE_FREE;
     ac6:	10 92 be 02 	sts	0x02BE, r1	; 0x8002be <nwkFrameFrames>
     aca:	10 92 47 03 	sts	0x0347, r1	; 0x800347 <nwkFrameFrames+0x89>
     ace:	10 92 d0 03 	sts	0x03D0, r1	; 0x8003d0 <nwkFrameFrames+0x112>
     ad2:	08 95       	ret

00000ad4 <nwkFrameAlloc>:
*  @return Pointer to the frame or @c NULL if there are no free frames
*****************************************************************************/
NwkFrame_t *nwkFrameAlloc(void)
{
	for (uint8_t i = 0; i < NWK_BUFFERS_AMOUNT; i++) {
		if (NWK_FRAME_STATE_FREE == nwkFrameFrames[i].state) {
     ad4:	80 91 be 02 	lds	r24, 0x02BE	; 0x8002be <nwkFrameFrames>
     ad8:	88 23       	and	r24, r24
     ada:	71 f0       	breq	.+28     	; 0xaf8 <nwkFrameAlloc+0x24>
     adc:	80 91 47 03 	lds	r24, 0x0347	; 0x800347 <nwkFrameFrames+0x89>
     ae0:	88 23       	and	r24, r24
     ae2:	39 f0       	breq	.+14     	; 0xaf2 <nwkFrameAlloc+0x1e>
     ae4:	80 91 d0 03 	lds	r24, 0x03D0	; 0x8003d0 <nwkFrameFrames+0x112>
     ae8:	81 11       	cpse	r24, r1
     aea:	27 c0       	rjmp	.+78     	; 0xb3a <nwkFrameAlloc+0x66>
     aec:	82 e0       	ldi	r24, 0x02	; 2
     aee:	90 e0       	ldi	r25, 0x00	; 0
     af0:	05 c0       	rjmp	.+10     	; 0xafc <nwkFrameAlloc+0x28>
     af2:	81 e0       	ldi	r24, 0x01	; 1
     af4:	90 e0       	ldi	r25, 0x00	; 0
     af6:	02 c0       	rjmp	.+4      	; 0xafc <nwkFrameAlloc+0x28>
     af8:	80 e0       	ldi	r24, 0x00	; 0
     afa:	90 e0       	ldi	r25, 0x00	; 0
			memset(&nwkFrameFrames[i], 0, sizeof(NwkFrame_t));
     afc:	49 e8       	ldi	r20, 0x89	; 137
     afe:	48 9f       	mul	r20, r24
     b00:	90 01       	movw	r18, r0
     b02:	49 9f       	mul	r20, r25
     b04:	30 0d       	add	r19, r0
     b06:	11 24       	eor	r1, r1
     b08:	c9 01       	movw	r24, r18
     b0a:	82 54       	subi	r24, 0x42	; 66
     b0c:	9d 4f       	sbci	r25, 0xFD	; 253
     b0e:	fc 01       	movw	r30, r24
     b10:	11 92       	st	Z+, r1
     b12:	4a 95       	dec	r20
     b14:	e9 f7       	brne	.-6      	; 0xb10 <nwkFrameAlloc+0x3c>
			nwkFrameFrames[i].size = sizeof(NwkFrameHeader_t);
     b16:	40 e1       	ldi	r20, 0x10	; 16
     b18:	fc 01       	movw	r30, r24
     b1a:	41 83       	std	Z+1, r20	; 0x01
			nwkFrameFrames[i].payload = nwkFrameFrames[i].data +
     b1c:	ef 57       	subi	r30, 0x7F	; 127
     b1e:	ff 4f       	sbci	r31, 0xFF	; 255
     b20:	20 53       	subi	r18, 0x30	; 48
     b22:	3d 4f       	sbci	r19, 0xFD	; 253
     b24:	31 83       	std	Z+1, r19	; 0x01
     b26:	20 83       	st	Z, r18
					sizeof(NwkFrameHeader_t);
			nwkIb.lock++;
     b28:	ed e5       	ldi	r30, 0x5D	; 93
     b2a:	f9 e0       	ldi	r31, 0x09	; 9
     b2c:	26 a9       	ldd	r18, Z+54	; 0x36
     b2e:	37 a9       	ldd	r19, Z+55	; 0x37
     b30:	2f 5f       	subi	r18, 0xFF	; 255
     b32:	3f 4f       	sbci	r19, 0xFF	; 255
     b34:	37 ab       	std	Z+55, r19	; 0x37
     b36:	26 ab       	std	Z+54, r18	; 0x36
			return &nwkFrameFrames[i];
     b38:	08 95       	ret
		}
	}
	return NULL;
     b3a:	80 e0       	ldi	r24, 0x00	; 0
     b3c:	90 e0       	ldi	r25, 0x00	; 0
}
     b3e:	08 95       	ret

00000b40 <nwkFrameFree>:
*  @brief Frees a @a frame and returns it to the buffer pool
*  @param[in] frame Pointer to the frame to be freed
*****************************************************************************/
void nwkFrameFree(NwkFrame_t *frame)
{
	frame->state = NWK_FRAME_STATE_FREE;
     b40:	fc 01       	movw	r30, r24
     b42:	10 82       	st	Z, r1
	nwkIb.lock--;
     b44:	ed e5       	ldi	r30, 0x5D	; 93
     b46:	f9 e0       	ldi	r31, 0x09	; 9
     b48:	86 a9       	ldd	r24, Z+54	; 0x36
     b4a:	97 a9       	ldd	r25, Z+55	; 0x37
     b4c:	01 97       	sbiw	r24, 0x01	; 1
     b4e:	97 ab       	std	Z+55, r25	; 0x37
     b50:	86 ab       	std	Z+54, r24	; 0x36
     b52:	08 95       	ret

00000b54 <nwkFrameNext>:
*  @param[in] frame Pointer to the current frame or @c NULL for the first frame
*  @return Next allocated frame or @c NULL if there are no more frames
*****************************************************************************/
NwkFrame_t *nwkFrameNext(NwkFrame_t *frame)
{
	if (NULL == frame) {
     b54:	00 97       	sbiw	r24, 0x00	; 0
     b56:	41 f0       	breq	.+16     	; 0xb68 <nwkFrameNext+0x14>
		frame = nwkFrameFrames;
	} else {
		frame++;
     b58:	fc 01       	movw	r30, r24
     b5a:	e7 57       	subi	r30, 0x77	; 119
     b5c:	ff 4f       	sbci	r31, 0xFF	; 255
	}

	for (; frame < &nwkFrameFrames[NWK_BUFFERS_AMOUNT]; frame++) {
     b5e:	84 e0       	ldi	r24, 0x04	; 4
     b60:	e9 35       	cpi	r30, 0x59	; 89
     b62:	f8 07       	cpc	r31, r24
     b64:	18 f0       	brcs	.+6      	; 0xb6c <nwkFrameNext+0x18>
     b66:	12 c0       	rjmp	.+36     	; 0xb8c <nwkFrameNext+0x38>
*  @return Next allocated frame or @c NULL if there are no more frames
*****************************************************************************/
NwkFrame_t *nwkFrameNext(NwkFrame_t *frame)
{
	if (NULL == frame) {
		frame = nwkFrameFrames;
     b68:	ee eb       	ldi	r30, 0xBE	; 190
     b6a:	f2 e0       	ldi	r31, 0x02	; 2
	} else {
		frame++;
	}

	for (; frame < &nwkFrameFrames[NWK_BUFFERS_AMOUNT]; frame++) {
		if (NWK_FRAME_STATE_FREE != frame->state) {
     b6c:	80 81       	ld	r24, Z
     b6e:	88 23       	and	r24, r24
     b70:	21 f0       	breq	.+8      	; 0xb7a <nwkFrameNext+0x26>
     b72:	0f c0       	rjmp	.+30     	; 0xb92 <nwkFrameNext+0x3e>
     b74:	80 81       	ld	r24, Z
     b76:	81 11       	cpse	r24, r1
     b78:	0f c0       	rjmp	.+30     	; 0xb98 <nwkFrameNext+0x44>
		frame = nwkFrameFrames;
	} else {
		frame++;
	}

	for (; frame < &nwkFrameFrames[NWK_BUFFERS_AMOUNT]; frame++) {
     b7a:	e7 57       	subi	r30, 0x77	; 119
     b7c:	ff 4f       	sbci	r31, 0xFF	; 255
     b7e:	84 e0       	ldi	r24, 0x04	; 4
     b80:	e9 35       	cpi	r30, 0x59	; 89
     b82:	f8 07       	cpc	r31, r24
     b84:	b8 f3       	brcs	.-18     	; 0xb74 <nwkFrameNext+0x20>
		if (NWK_FRAME_STATE_FREE != frame->state) {
			return frame;
		}
	}

	return NULL;
     b86:	80 e0       	ldi	r24, 0x00	; 0
     b88:	90 e0       	ldi	r25, 0x00	; 0
     b8a:	08 95       	ret
     b8c:	80 e0       	ldi	r24, 0x00	; 0
     b8e:	90 e0       	ldi	r25, 0x00	; 0
     b90:	08 95       	ret
	} else {
		frame++;
	}

	for (; frame < &nwkFrameFrames[NWK_BUFFERS_AMOUNT]; frame++) {
		if (NWK_FRAME_STATE_FREE != frame->state) {
     b92:	8e 2f       	mov	r24, r30
     b94:	9f 2f       	mov	r25, r31
     b96:	08 95       	ret
		frame = nwkFrameFrames;
	} else {
		frame++;
	}

	for (; frame < &nwkFrameFrames[NWK_BUFFERS_AMOUNT]; frame++) {
     b98:	8e 2f       	mov	r24, r30
     b9a:	9f 2f       	mov	r25, r31
			return frame;
		}
	}

	return NULL;
}
     b9c:	08 95       	ret

00000b9e <nwkFrameCommandInit>:
/*************************************************************************//**
*  @brief Sets default parameters for the the command @a frame
*  @param[in] frame Pointer to the command frame
*****************************************************************************/
void nwkFrameCommandInit(NwkFrame_t *frame)
{
     b9e:	fc 01       	movw	r30, r24
	frame->tx.status = NWK_SUCCESS_STATUS;
     ba0:	dc 01       	movw	r26, r24
     ba2:	ad 57       	subi	r26, 0x7D	; 125
     ba4:	bf 4f       	sbci	r27, 0xFF	; 255
     ba6:	1c 92       	st	X, r1
	frame->header.nwkSeq = ++nwkIb.nwkSeqNum;
     ba8:	ad e5       	ldi	r26, 0x5D	; 93
     baa:	b9 e0       	ldi	r27, 0x09	; 9
     bac:	14 96       	adiw	r26, 0x04	; 4
     bae:	9c 91       	ld	r25, X
     bb0:	14 97       	sbiw	r26, 0x04	; 4
     bb2:	9f 5f       	subi	r25, 0xFF	; 255
     bb4:	14 96       	adiw	r26, 0x04	; 4
     bb6:	9c 93       	st	X, r25
     bb8:	14 97       	sbiw	r26, 0x04	; 4
     bba:	94 87       	std	Z+12, r25	; 0x0c
	frame->header.nwkSrcAddr = nwkIb.addr;
     bbc:	8d 91       	ld	r24, X+
     bbe:	9c 91       	ld	r25, X
     bc0:	96 87       	std	Z+14, r25	; 0x0e
     bc2:	85 87       	std	Z+13, r24	; 0x0d
     bc4:	08 95       	ret

00000bc6 <nwkRouteInit>:
	entry->nextHopAddr = nextHop;
	entry->multicast = multicast;
	entry->score = NWK_ROUTE_DEFAULT_SCORE;
	entry->rank = NWK_ROUTE_DEFAULT_RANK;
	entry->lqi = lqi;
}
     bc6:	aa e5       	ldi	r26, 0x5A	; 90
     bc8:	b4 e0       	ldi	r27, 0x04	; 4
     bca:	80 e0       	ldi	r24, 0x00	; 0
     bcc:	90 e0       	ldi	r25, 0x00	; 0
     bce:	4f ef       	ldi	r20, 0xFF	; 255
     bd0:	5f ef       	ldi	r21, 0xFF	; 255
     bd2:	11 96       	adiw	r26, 0x01	; 1
     bd4:	5c 93       	st	X, r21
     bd6:	4e 93       	st	-X, r20
     bd8:	fc 01       	movw	r30, r24
     bda:	ee 0f       	add	r30, r30
     bdc:	ff 1f       	adc	r31, r31
     bde:	ee 0f       	add	r30, r30
     be0:	ff 1f       	adc	r31, r31
     be2:	ee 0f       	add	r30, r30
     be4:	ff 1f       	adc	r31, r31
     be6:	e8 1b       	sub	r30, r24
     be8:	f9 0b       	sbc	r31, r25
     bea:	e7 5a       	subi	r30, 0xA7	; 167
     bec:	fb 4f       	sbci	r31, 0xFB	; 251
     bee:	20 81       	ld	r18, Z
     bf0:	2e 7f       	andi	r18, 0xFE	; 254
     bf2:	20 83       	st	Z, r18
     bf4:	14 96       	adiw	r26, 0x04	; 4
     bf6:	1c 92       	st	X, r1
     bf8:	14 97       	sbiw	r26, 0x04	; 4
     bfa:	01 96       	adiw	r24, 0x01	; 1
     bfc:	17 96       	adiw	r26, 0x07	; 7
     bfe:	84 36       	cpi	r24, 0x64	; 100
     c00:	91 05       	cpc	r25, r1
     c02:	39 f7       	brne	.-50     	; 0xbd2 <nwkRouteInit+0xc>
     c04:	08 95       	ret

00000c06 <NWK_RouteFindEntry>:
     c06:	0f 93       	push	r16
     c08:	1f 93       	push	r17
     c0a:	cf 93       	push	r28
     c0c:	df 93       	push	r29
     c0e:	ea e5       	ldi	r30, 0x5A	; 90
     c10:	f4 e0       	ldi	r31, 0x04	; 4
     c12:	20 e0       	ldi	r18, 0x00	; 0
     c14:	30 e0       	ldi	r19, 0x00	; 0
     c16:	06 2f       	mov	r16, r22
     c18:	10 e0       	ldi	r17, 0x00	; 0
     c1a:	40 81       	ld	r20, Z
     c1c:	51 81       	ldd	r21, Z+1	; 0x01
     c1e:	48 17       	cp	r20, r24
     c20:	59 07       	cpc	r21, r25
     c22:	b1 f4       	brne	.+44     	; 0xc50 <NWK_RouteFindEntry+0x4a>
     c24:	d9 01       	movw	r26, r18
     c26:	aa 0f       	add	r26, r26
     c28:	bb 1f       	adc	r27, r27
     c2a:	aa 0f       	add	r26, r26
     c2c:	bb 1f       	adc	r27, r27
     c2e:	aa 0f       	add	r26, r26
     c30:	bb 1f       	adc	r27, r27
     c32:	a2 1b       	sub	r26, r18
     c34:	b3 0b       	sbc	r27, r19
     c36:	a7 5a       	subi	r26, 0xA7	; 167
     c38:	bb 4f       	sbci	r27, 0xFB	; 251
     c3a:	4c 91       	ld	r20, X
     c3c:	46 95       	lsr	r20
     c3e:	41 70       	andi	r20, 0x01	; 1
     c40:	c4 2f       	mov	r28, r20
     c42:	40 e0       	ldi	r20, 0x00	; 0
     c44:	d4 2f       	mov	r29, r20
     c46:	c0 17       	cp	r28, r16
     c48:	d1 07       	cpc	r29, r17
     c4a:	11 f4       	brne	.+4      	; 0xc50 <NWK_RouteFindEntry+0x4a>
     c4c:	cd 01       	movw	r24, r26
     c4e:	08 c0       	rjmp	.+16     	; 0xc60 <NWK_RouteFindEntry+0x5a>
     c50:	2f 5f       	subi	r18, 0xFF	; 255
     c52:	3f 4f       	sbci	r19, 0xFF	; 255
     c54:	37 96       	adiw	r30, 0x07	; 7
     c56:	24 36       	cpi	r18, 0x64	; 100
     c58:	31 05       	cpc	r19, r1
     c5a:	f9 f6       	brne	.-66     	; 0xc1a <NWK_RouteFindEntry+0x14>
     c5c:	80 e0       	ldi	r24, 0x00	; 0
     c5e:	90 e0       	ldi	r25, 0x00	; 0
     c60:	df 91       	pop	r29
     c62:	cf 91       	pop	r28
     c64:	1f 91       	pop	r17
     c66:	0f 91       	pop	r16
     c68:	08 95       	ret

00000c6a <NWK_RouteNewEntry>:
     c6a:	a0 e0       	ldi	r26, 0x00	; 0
     c6c:	b0 e0       	ldi	r27, 0x00	; 0
     c6e:	e9 e5       	ldi	r30, 0x59	; 89
     c70:	f4 e0       	ldi	r31, 0x04	; 4
     c72:	80 81       	ld	r24, Z
     c74:	80 fd       	sbrc	r24, 0
     c76:	0d c0       	rjmp	.+26     	; 0xc92 <NWK_RouteNewEntry+0x28>
     c78:	85 81       	ldd	r24, Z+5	; 0x05
     c7a:	88 23       	and	r24, r24
     c7c:	81 f0       	breq	.+32     	; 0xc9e <NWK_RouteNewEntry+0x34>
     c7e:	10 97       	sbiw	r26, 0x00	; 0
     c80:	39 f0       	breq	.+14     	; 0xc90 <NWK_RouteNewEntry+0x26>
     c82:	15 96       	adiw	r26, 0x05	; 5
     c84:	9c 91       	ld	r25, X
     c86:	15 97       	sbiw	r26, 0x05	; 5
     c88:	89 17       	cp	r24, r25
     c8a:	18 f4       	brcc	.+6      	; 0xc92 <NWK_RouteNewEntry+0x28>
     c8c:	df 01       	movw	r26, r30
     c8e:	01 c0       	rjmp	.+2      	; 0xc92 <NWK_RouteNewEntry+0x28>
     c90:	df 01       	movw	r26, r30
     c92:	37 96       	adiw	r30, 0x07	; 7
     c94:	87 e0       	ldi	r24, 0x07	; 7
     c96:	e5 31       	cpi	r30, 0x15	; 21
     c98:	f8 07       	cpc	r31, r24
     c9a:	59 f7       	brne	.-42     	; 0xc72 <NWK_RouteNewEntry+0x8>
     c9c:	fd 01       	movw	r30, r26
     c9e:	80 81       	ld	r24, Z
     ca0:	8d 70       	andi	r24, 0x0D	; 13
     ca2:	80 63       	ori	r24, 0x30	; 48
     ca4:	80 83       	st	Z, r24
     ca6:	80 e8       	ldi	r24, 0x80	; 128
     ca8:	85 83       	std	Z+5, r24	; 0x05
     caa:	cf 01       	movw	r24, r30
     cac:	08 95       	ret

00000cae <NWK_RouteFreeEntry>:
     cae:	fc 01       	movw	r30, r24
     cb0:	80 81       	ld	r24, Z
     cb2:	80 fd       	sbrc	r24, 0
     cb4:	05 c0       	rjmp	.+10     	; 0xcc0 <NWK_RouteFreeEntry+0x12>
     cb6:	8f ef       	ldi	r24, 0xFF	; 255
     cb8:	9f ef       	ldi	r25, 0xFF	; 255
     cba:	92 83       	std	Z+2, r25	; 0x02
     cbc:	81 83       	std	Z+1, r24	; 0x01
     cbe:	15 82       	std	Z+5, r1	; 0x05
     cc0:	08 95       	ret

00000cc2 <NWK_RouteNextHop>:
     cc2:	a1 df       	rcall	.-190    	; 0xc06 <NWK_RouteFindEntry>
     cc4:	00 97       	sbiw	r24, 0x00	; 0
     cc6:	21 f0       	breq	.+8      	; 0xcd0 <NWK_RouteNextHop+0xe>
     cc8:	fc 01       	movw	r30, r24
     cca:	83 81       	ldd	r24, Z+3	; 0x03
     ccc:	94 81       	ldd	r25, Z+4	; 0x04
     cce:	08 95       	ret
     cd0:	8f ef       	ldi	r24, 0xFF	; 255
     cd2:	9f ef       	ldi	r25, 0xFF	; 255
     cd4:	08 95       	ret

00000cd6 <nwkRouteRemove>:
*****************************************************************************/
void nwkRouteRemove(uint16_t dst, uint8_t multicast)
{
	NWK_RouteTableEntry_t *entry;

	entry = NWK_RouteFindEntry(dst, multicast);
     cd6:	97 df       	rcall	.-210    	; 0xc06 <NWK_RouteFindEntry>
	if (entry) {
     cd8:	00 97       	sbiw	r24, 0x00	; 0
		NWK_RouteFreeEntry(entry);
     cda:	09 f0       	breq	.+2      	; 0xcde <nwkRouteRemove+0x8>
     cdc:	e8 cf       	rjmp	.-48     	; 0xcae <NWK_RouteFreeEntry>
     cde:	08 95       	ret

00000ce0 <nwkRouteFrameReceived>:
}

/*************************************************************************//**
*****************************************************************************/
void nwkRouteFrameReceived(NwkFrame_t *frame)
{
     ce0:	0f 93       	push	r16
     ce2:	1f 93       	push	r17
     ce4:	cf 93       	push	r28
     ce6:	df 93       	push	r29
     ce8:	fc 01       	movw	r30, r24
#ifndef NWK_ENABLE_ROUTE_DISCOVERY
	NwkFrameHeader_t *header = &frame->header;
	NWK_RouteTableEntry_t *entry;

	if ((header->macSrcAddr & NWK_ROUTE_NON_ROUTING) &&
     cea:	01 85       	ldd	r16, Z+9	; 0x09
     cec:	12 85       	ldd	r17, Z+10	; 0x0a
     cee:	11 23       	and	r17, r17
     cf0:	2c f4       	brge	.+10     	; 0xcfc <nwkRouteFrameReceived+0x1c>
     cf2:	85 85       	ldd	r24, Z+13	; 0x0d
     cf4:	96 85       	ldd	r25, Z+14	; 0x0e
     cf6:	08 17       	cp	r16, r24
     cf8:	19 07       	cpc	r17, r25
     cfa:	e1 f5       	brne	.+120    	; 0xd74 <nwkRouteFrameReceived+0x94>
			(header->macSrcAddr != header->nwkSrcAddr)) {
		return;
	}

	if (NWK_BROADCAST_PANID == header->macDstPanId) {
     cfc:	85 81       	ldd	r24, Z+5	; 0x05
     cfe:	96 81       	ldd	r25, Z+6	; 0x06
     d00:	01 96       	adiw	r24, 0x01	; 1
     d02:	c1 f1       	breq	.+112    	; 0xd74 <nwkRouteFrameReceived+0x94>
     d04:	ef 01       	movw	r28, r30
		return;
	}

	entry = NWK_RouteFindEntry(header->nwkSrcAddr, false);
     d06:	60 e0       	ldi	r22, 0x00	; 0
     d08:	85 85       	ldd	r24, Z+13	; 0x0d
     d0a:	96 85       	ldd	r25, Z+14	; 0x0e
     d0c:	7c df       	rcall	.-264    	; 0xc06 <NWK_RouteFindEntry>
     d0e:	fc 01       	movw	r30, r24

	if (entry) {
     d10:	89 2b       	or	r24, r25
     d12:	a1 f0       	breq	.+40     	; 0xd3c <nwkRouteFrameReceived+0x5c>
		bool discovery = (NWK_BROADCAST_ADDR == header->macDstAddr &&
     d14:	8f 81       	ldd	r24, Y+7	; 0x07
     d16:	98 85       	ldd	r25, Y+8	; 0x08
     d18:	01 96       	adiw	r24, 0x01	; 1
     d1a:	f9 f4       	brne	.+62     	; 0xd5a <nwkRouteFrameReceived+0x7a>
     d1c:	20 91 5d 09 	lds	r18, 0x095D	; 0x80095d <nwkIb>
     d20:	30 91 5e 09 	lds	r19, 0x095E	; 0x80095e <nwkIb+0x1>
     d24:	8f 85       	ldd	r24, Y+15	; 0x0f
     d26:	98 89       	ldd	r25, Y+16	; 0x10
     d28:	28 17       	cp	r18, r24
     d2a:	39 07       	cpc	r19, r25
     d2c:	b1 f4       	brne	.+44     	; 0xd5a <nwkRouteFrameReceived+0x7a>
				nwkIb.addr == header->nwkDstAddr);

		if ((entry->nextHopAddr != header->macSrcAddr && frame->rx.lqi >
				entry->lqi) || discovery) {
			entry->nextHopAddr = header->macSrcAddr;
     d2e:	14 83       	std	Z+4, r17	; 0x04
     d30:	03 83       	std	Z+3, r16	; 0x03
			entry->score = NWK_ROUTE_DEFAULT_SCORE;
     d32:	80 81       	ld	r24, Z
     d34:	8f 70       	andi	r24, 0x0F	; 15
     d36:	80 63       	ori	r24, 0x30	; 48
     d38:	80 83       	st	Z, r24
		}
	} else {
		entry = NWK_RouteNewEntry();
     d3a:	0a c0       	rjmp	.+20     	; 0xd50 <nwkRouteFrameReceived+0x70>
     d3c:	96 df       	rcall	.-212    	; 0xc6a <NWK_RouteNewEntry>
     d3e:	fc 01       	movw	r30, r24

		entry->dstAddr = header->nwkSrcAddr;
     d40:	8d 85       	ldd	r24, Y+13	; 0x0d
     d42:	9e 85       	ldd	r25, Y+14	; 0x0e
     d44:	92 83       	std	Z+2, r25	; 0x02
     d46:	81 83       	std	Z+1, r24	; 0x01
		entry->nextHopAddr = header->macSrcAddr;
     d48:	89 85       	ldd	r24, Y+9	; 0x09
     d4a:	9a 85       	ldd	r25, Y+10	; 0x0a
     d4c:	94 83       	std	Z+4, r25	; 0x04
     d4e:	83 83       	std	Z+3, r24	; 0x03
	}

	entry->lqi = frame->rx.lqi;
     d50:	cd 57       	subi	r28, 0x7D	; 125
     d52:	df 4f       	sbci	r29, 0xFF	; 255
     d54:	88 81       	ld	r24, Y
     d56:	86 83       	std	Z+6, r24	; 0x06
     d58:	0d c0       	rjmp	.+26     	; 0xd74 <nwkRouteFrameReceived+0x94>

	if (entry) {
		bool discovery = (NWK_BROADCAST_ADDR == header->macDstAddr &&
				nwkIb.addr == header->nwkDstAddr);

		if ((entry->nextHopAddr != header->macSrcAddr && frame->rx.lqi >
     d5a:	83 81       	ldd	r24, Z+3	; 0x03
     d5c:	94 81       	ldd	r25, Z+4	; 0x04
     d5e:	08 17       	cp	r16, r24
     d60:	19 07       	cpc	r17, r25
     d62:	b1 f3       	breq	.-20     	; 0xd50 <nwkRouteFrameReceived+0x70>
     d64:	96 81       	ldd	r25, Z+6	; 0x06
     d66:	de 01       	movw	r26, r28
     d68:	ad 57       	subi	r26, 0x7D	; 125
     d6a:	bf 4f       	sbci	r27, 0xFF	; 255
     d6c:	8c 91       	ld	r24, X
     d6e:	98 17       	cp	r25, r24
     d70:	f0 f2       	brcs	.-68     	; 0xd2e <nwkRouteFrameReceived+0x4e>
     d72:	ee cf       	rjmp	.-36     	; 0xd50 <nwkRouteFrameReceived+0x70>

	entry->lqi = frame->rx.lqi;
#else
	(void)frame;
#endif
}
     d74:	df 91       	pop	r29
     d76:	cf 91       	pop	r28
     d78:	1f 91       	pop	r17
     d7a:	0f 91       	pop	r16
     d7c:	08 95       	ret

00000d7e <nwkRouteFrameSent>:

/*************************************************************************//**
*****************************************************************************/
void nwkRouteFrameSent(NwkFrame_t *frame)
{
     d7e:	cf 93       	push	r28
     d80:	df 93       	push	r29
     d82:	fc 01       	movw	r30, r24
	NWK_RouteTableEntry_t *entry;

	if (NWK_BROADCAST_ADDR == frame->header.nwkDstAddr) {
     d84:	87 85       	ldd	r24, Z+15	; 0x0f
     d86:	90 89       	ldd	r25, Z+16	; 0x10
     d88:	8f 3f       	cpi	r24, 0xFF	; 255
     d8a:	2f ef       	ldi	r18, 0xFF	; 255
     d8c:	92 07       	cpc	r25, r18
     d8e:	d9 f1       	breq	.+118    	; 0xe06 <nwkRouteFrameSent+0x88>
     d90:	ef 01       	movw	r28, r30
		return;
	}

	entry = NWK_RouteFindEntry(frame->header.nwkDstAddr,
			frame->header.nwkFcf.multicast);
     d92:	63 85       	ldd	r22, Z+11	; 0x0b
     d94:	63 fb       	bst	r22, 3
     d96:	66 27       	eor	r22, r22
     d98:	60 f9       	bld	r22, 0

	if (NWK_BROADCAST_ADDR == frame->header.nwkDstAddr) {
		return;
	}

	entry = NWK_RouteFindEntry(frame->header.nwkDstAddr,
     d9a:	35 df       	rcall	.-406    	; 0xc06 <NWK_RouteFindEntry>
     d9c:	dc 01       	movw	r26, r24
			frame->header.nwkFcf.multicast);

	if (NULL == entry || entry->fixed) {
     d9e:	89 2b       	or	r24, r25
     da0:	91 f1       	breq	.+100    	; 0xe06 <nwkRouteFrameSent+0x88>
     da2:	8c 91       	ld	r24, X
     da4:	80 fd       	sbrc	r24, 0
     da6:	2f c0       	rjmp	.+94     	; 0xe06 <nwkRouteFrameSent+0x88>
		return;
	}

	if (NWK_SUCCESS_STATUS == frame->tx.status) {
     da8:	fe 01       	movw	r30, r28
     daa:	ed 57       	subi	r30, 0x7D	; 125
     dac:	ff 4f       	sbci	r31, 0xFF	; 255
     dae:	80 81       	ld	r24, Z
     db0:	81 11       	cpse	r24, r1
     db2:	19 c0       	rjmp	.+50     	; 0xde6 <nwkRouteFrameSent+0x68>
		entry->score = NWK_ROUTE_DEFAULT_SCORE;
     db4:	8c 91       	ld	r24, X
     db6:	8f 70       	andi	r24, 0x0F	; 15
     db8:	80 63       	ori	r24, 0x30	; 48
     dba:	8c 93       	st	X, r24

		if (NWK_ROUTE_MAX_RANK == ++entry->rank) {
     dbc:	15 96       	adiw	r26, 0x05	; 5
     dbe:	8c 91       	ld	r24, X
     dc0:	15 97       	sbiw	r26, 0x05	; 5
     dc2:	8f 5f       	subi	r24, 0xFF	; 255
     dc4:	15 96       	adiw	r26, 0x05	; 5
     dc6:	8c 93       	st	X, r24
     dc8:	8f 3f       	cpi	r24, 0xFF	; 255
     dca:	e9 f4       	brne	.+58     	; 0xe06 <nwkRouteFrameSent+0x88>
     dcc:	ee e5       	ldi	r30, 0x5E	; 94
     dce:	f4 e0       	ldi	r31, 0x04	; 4
     dd0:	2a e1       	ldi	r18, 0x1A	; 26
     dd2:	37 e0       	ldi	r19, 0x07	; 7
/*************************************************************************//**
*****************************************************************************/
static void nwkRouteNormalizeRanks(void)
{
	for (uint8_t i = 0; i < NWK_ROUTE_TABLE_SIZE; i++) {
		nwkRouteTable[i].rank = (nwkRouteTable[i].rank >> 1) + 1;
     dd4:	80 81       	ld	r24, Z
     dd6:	86 95       	lsr	r24
     dd8:	8f 5f       	subi	r24, 0xFF	; 255
     dda:	80 83       	st	Z, r24
     ddc:	37 96       	adiw	r30, 0x07	; 7

/*************************************************************************//**
*****************************************************************************/
static void nwkRouteNormalizeRanks(void)
{
	for (uint8_t i = 0; i < NWK_ROUTE_TABLE_SIZE; i++) {
     dde:	e2 17       	cp	r30, r18
     de0:	f3 07       	cpc	r31, r19
     de2:	c1 f7       	brne	.-16     	; 0xdd4 <nwkRouteFrameSent+0x56>
     de4:	10 c0       	rjmp	.+32     	; 0xe06 <nwkRouteFrameSent+0x88>

		if (NWK_ROUTE_MAX_RANK == ++entry->rank) {
			nwkRouteNormalizeRanks();
		}
	} else {
		if (0 == --entry->score) {
     de6:	9c 91       	ld	r25, X
     de8:	89 2f       	mov	r24, r25
     dea:	82 95       	swap	r24
     dec:	8f 70       	andi	r24, 0x0F	; 15
     dee:	81 5f       	subi	r24, 0xF1	; 241
     df0:	8f 70       	andi	r24, 0x0F	; 15
     df2:	28 2f       	mov	r18, r24
     df4:	22 95       	swap	r18
     df6:	20 7f       	andi	r18, 0xF0	; 240
     df8:	9f 70       	andi	r25, 0x0F	; 15
     dfa:	92 2b       	or	r25, r18
     dfc:	9c 93       	st	X, r25
     dfe:	81 11       	cpse	r24, r1
     e00:	02 c0       	rjmp	.+4      	; 0xe06 <nwkRouteFrameSent+0x88>
			NWK_RouteFreeEntry(entry);
     e02:	cd 01       	movw	r24, r26
     e04:	54 df       	rcall	.-344    	; 0xcae <NWK_RouteFreeEntry>
		}
	}
}
     e06:	df 91       	pop	r29
     e08:	cf 91       	pop	r28
     e0a:	08 95       	ret

00000e0c <nwkRoutePrepareTx>:

/*************************************************************************//**
*****************************************************************************/
void nwkRoutePrepareTx(NwkFrame_t *frame)
{
     e0c:	cf 93       	push	r28
     e0e:	df 93       	push	r29
     e10:	fc 01       	movw	r30, r24
	NwkFrameHeader_t *header = &frame->header;

	if (NWK_BROADCAST_ADDR == header->nwkDstAddr) {
     e12:	87 85       	ldd	r24, Z+15	; 0x0f
     e14:	90 89       	ldd	r25, Z+16	; 0x10
     e16:	8f 3f       	cpi	r24, 0xFF	; 255
     e18:	2f ef       	ldi	r18, 0xFF	; 255
     e1a:	92 07       	cpc	r25, r18
     e1c:	29 f4       	brne	.+10     	; 0xe28 <nwkRoutePrepareTx+0x1c>
		header->macDstAddr = NWK_BROADCAST_ADDR;
     e1e:	8f ef       	ldi	r24, 0xFF	; 255
     e20:	9f ef       	ldi	r25, 0xFF	; 255
     e22:	90 87       	std	Z+8, r25	; 0x08
     e24:	87 83       	std	Z+7, r24	; 0x07
     e26:	0e c0       	rjmp	.+28     	; 0xe44 <nwkRoutePrepareTx+0x38>
	} else if (header->nwkFcf.linkLocal) {
     e28:	23 85       	ldd	r18, Z+11	; 0x0b
     e2a:	22 ff       	sbrs	r18, 2
     e2c:	03 c0       	rjmp	.+6      	; 0xe34 <nwkRoutePrepareTx+0x28>
		header->macDstAddr = header->nwkDstAddr;
     e2e:	90 87       	std	Z+8, r25	; 0x08
     e30:	87 83       	std	Z+7, r24	; 0x07
     e32:	08 c0       	rjmp	.+16     	; 0xe44 <nwkRoutePrepareTx+0x38>
     e34:	ef 01       	movw	r28, r30
	}
#endif

	else {
		header->macDstAddr = NWK_RouteNextHop(header->nwkDstAddr,
				header->nwkFcf.multicast);
     e36:	63 85       	ldd	r22, Z+11	; 0x0b
     e38:	63 fb       	bst	r22, 3
     e3a:	66 27       	eor	r22, r22
     e3c:	60 f9       	bld	r22, 0
		header->nwkFcf.linkLocal = 1;
	}
#endif

	else {
		header->macDstAddr = NWK_RouteNextHop(header->nwkDstAddr,
     e3e:	41 df       	rcall	.-382    	; 0xcc2 <NWK_RouteNextHop>
     e40:	98 87       	std	Y+8, r25	; 0x08
     e42:	8f 83       	std	Y+7, r24	; 0x07
		if (NWK_ROUTE_UNKNOWN == header->macDstAddr) {
			nwkRouteDiscoveryRequest(frame);
		}
  #endif
	}
}
     e44:	df 91       	pop	r29
     e46:	cf 91       	pop	r28
     e48:	08 95       	ret

00000e4a <nwkRouteFrame>:

/*************************************************************************//**
*****************************************************************************/
void nwkRouteFrame(NwkFrame_t *frame)
{
     e4a:	af 92       	push	r10
     e4c:	bf 92       	push	r11
     e4e:	cf 92       	push	r12
     e50:	df 92       	push	r13
     e52:	ef 92       	push	r14
     e54:	ff 92       	push	r15
     e56:	1f 93       	push	r17
     e58:	cf 93       	push	r28
     e5a:	df 93       	push	r29
     e5c:	ec 01       	movw	r28, r24
	NwkFrameHeader_t *header = &frame->header;

	if (NWK_ROUTE_UNKNOWN !=
			NWK_RouteNextHop(header->nwkDstAddr,
			header->nwkFcf.multicast)) {
     e5e:	1b 85       	ldd	r17, Y+11	; 0x0b
     e60:	13 fb       	bst	r17, 3
     e62:	11 27       	eor	r17, r17
     e64:	10 f9       	bld	r17, 0
void nwkRouteFrame(NwkFrame_t *frame)
{
	NwkFrameHeader_t *header = &frame->header;

	if (NWK_ROUTE_UNKNOWN !=
			NWK_RouteNextHop(header->nwkDstAddr,
     e66:	cf 84       	ldd	r12, Y+15	; 0x0f
     e68:	d8 88       	ldd	r13, Y+16	; 0x10
     e6a:	61 2f       	mov	r22, r17
     e6c:	c6 01       	movw	r24, r12
     e6e:	29 df       	rcall	.-430    	; 0xcc2 <NWK_RouteNextHop>
*****************************************************************************/
void nwkRouteFrame(NwkFrame_t *frame)
{
	NwkFrameHeader_t *header = &frame->header;

	if (NWK_ROUTE_UNKNOWN !=
     e70:	01 96       	adiw	r24, 0x01	; 1
     e72:	59 f0       	breq	.+22     	; 0xe8a <nwkRouteFrame+0x40>
			NWK_RouteNextHop(header->nwkDstAddr,
			header->nwkFcf.multicast)) {
		frame->tx.confirm = NULL;
     e74:	fe 01       	movw	r30, r28
     e76:	e9 57       	subi	r30, 0x79	; 121
     e78:	ff 4f       	sbci	r31, 0xFF	; 255
     e7a:	11 82       	std	Z+1, r1	; 0x01
     e7c:	10 82       	st	Z, r1
		frame->tx.control = NWK_TX_CONTROL_ROUTING;
     e7e:	31 97       	sbiw	r30, 0x01	; 1
     e80:	82 e0       	ldi	r24, 0x02	; 2
     e82:	80 83       	st	Z, r24
		nwkTxFrame(frame);
     e84:	ce 01       	movw	r24, r28
     e86:	d5 d4       	rcall	.+2474   	; 0x1832 <nwkTxFrame>
     e88:	22 c0       	rjmp	.+68     	; 0xece <nwkRouteFrame+0x84>
	} else {
		nwkRouteSendRouteError(header->nwkSrcAddr, header->nwkDstAddr,
     e8a:	ad 84       	ldd	r10, Y+13	; 0x0d
		uint8_t multicast)
{
	NwkFrame_t *frame;
	NwkCommandRouteError_t *command;

	if (NULL == (frame = nwkFrameAlloc())) {
     e8c:	be 84       	ldd	r11, Y+14	; 0x0e
     e8e:	22 de       	rcall	.-956    	; 0xad4 <nwkFrameAlloc>
     e90:	7c 01       	movw	r14, r24
     e92:	00 97       	sbiw	r24, 0x00	; 0
		return;
	}

	nwkFrameCommandInit(frame);
     e94:	d1 f0       	breq	.+52     	; 0xeca <nwkRouteFrame+0x80>
     e96:	83 de       	rcall	.-762    	; 0xb9e <nwkFrameCommandInit>

	frame->size += sizeof(NwkCommandRouteError_t);
     e98:	f7 01       	movw	r30, r14
     e9a:	81 81       	ldd	r24, Z+1	; 0x01
     e9c:	8a 5f       	subi	r24, 0xFA	; 250
     e9e:	81 83       	std	Z+1, r24	; 0x01
	frame->tx.confirm = NULL;
     ea0:	e9 57       	subi	r30, 0x79	; 121
     ea2:	ff 4f       	sbci	r31, 0xFF	; 255
     ea4:	11 82       	std	Z+1, r1	; 0x01
     ea6:	10 82       	st	Z, r1

	frame->header.nwkDstAddr = src;
     ea8:	f7 01       	movw	r30, r14
     eaa:	b0 8a       	std	Z+16, r11	; 0x10
     eac:	a7 86       	std	Z+15, r10	; 0x0f

	command = (NwkCommandRouteError_t *)frame->payload;
     eae:	ef 57       	subi	r30, 0x7F	; 127
     eb0:	ff 4f       	sbci	r31, 0xFF	; 255
     eb2:	01 90       	ld	r0, Z+
     eb4:	f0 81       	ld	r31, Z
     eb6:	e0 2d       	mov	r30, r0
	command->id = NWK_COMMAND_ROUTE_ERROR;
     eb8:	81 e0       	ldi	r24, 0x01	; 1
     eba:	80 83       	st	Z, r24
	command->srcAddr = src;
     ebc:	b2 82       	std	Z+2, r11	; 0x02
     ebe:	a1 82       	std	Z+1, r10	; 0x01
	command->dstAddr = dst;
     ec0:	d4 82       	std	Z+4, r13	; 0x04
	command->multicast = multicast;

	nwkTxFrame(frame);
     ec2:	c3 82       	std	Z+3, r12	; 0x03
     ec4:	15 83       	std	Z+5, r17	; 0x05
     ec6:	c7 01       	movw	r24, r14
		frame->tx.control = NWK_TX_CONTROL_ROUTING;
		nwkTxFrame(frame);
	} else {
		nwkRouteSendRouteError(header->nwkSrcAddr, header->nwkDstAddr,
				header->nwkFcf.multicast);
		nwkFrameFree(frame);
     ec8:	b4 d4       	rcall	.+2408   	; 0x1832 <nwkTxFrame>
     eca:	ce 01       	movw	r24, r28
     ecc:	39 de       	rcall	.-910    	; 0xb40 <nwkFrameFree>
	}
}
     ece:	df 91       	pop	r29
     ed0:	cf 91       	pop	r28
     ed2:	1f 91       	pop	r17
     ed4:	ff 90       	pop	r15
     ed6:	ef 90       	pop	r14
     ed8:	df 90       	pop	r13
     eda:	cf 90       	pop	r12
     edc:	bf 90       	pop	r11
     ede:	af 90       	pop	r10
     ee0:	08 95       	ret

00000ee2 <nwkRouteErrorReceived>:
*****************************************************************************/
bool nwkRouteErrorReceived(NWK_DataInd_t *ind)
{
	NwkCommandRouteError_t *command = (NwkCommandRouteError_t *)ind->data;

	if (sizeof(NwkCommandRouteError_t) != ind->size) {
     ee2:	fc 01       	movw	r30, r24
     ee4:	21 85       	ldd	r18, Z+9	; 0x09
     ee6:	26 30       	cpi	r18, 0x06	; 6
     ee8:	49 f4       	brne	.+18     	; 0xefc <nwkRouteErrorReceived+0x1a>

/*************************************************************************//**
*****************************************************************************/
bool nwkRouteErrorReceived(NWK_DataInd_t *ind)
{
	NwkCommandRouteError_t *command = (NwkCommandRouteError_t *)ind->data;
     eea:	07 80       	ldd	r0, Z+7	; 0x07
     eec:	f0 85       	ldd	r31, Z+8	; 0x08
     eee:	e0 2d       	mov	r30, r0

	if (sizeof(NwkCommandRouteError_t) != ind->size) {
		return false;
	}

	nwkRouteRemove(command->dstAddr, command->multicast);
     ef0:	65 81       	ldd	r22, Z+5	; 0x05
     ef2:	83 81       	ldd	r24, Z+3	; 0x03
     ef4:	94 81       	ldd	r25, Z+4	; 0x04
     ef6:	ef de       	rcall	.-546    	; 0xcd6 <nwkRouteRemove>

	return true;
     ef8:	81 e0       	ldi	r24, 0x01	; 1
     efa:	08 95       	ret
bool nwkRouteErrorReceived(NWK_DataInd_t *ind)
{
	NwkCommandRouteError_t *command = (NwkCommandRouteError_t *)ind->data;

	if (sizeof(NwkCommandRouteError_t) != ind->size) {
		return false;
     efc:	80 e0       	ldi	r24, 0x00	; 0
	}

	nwkRouteRemove(command->dstAddr, command->multicast);

	return true;
}
     efe:	08 95       	ret

00000f00 <nwkRxSeriveDataInd>:

/*************************************************************************//**
*****************************************************************************/
void NWK_SetAckControl(uint8_t control)
{
	nwkRxAckControl = control;
     f00:	dc 01       	movw	r26, r24
     f02:	19 96       	adiw	r26, 0x09	; 9
     f04:	2c 91       	ld	r18, X
     f06:	19 97       	sbiw	r26, 0x09	; 9
     f08:	22 23       	and	r18, r18
     f0a:	71 f0       	breq	.+28     	; 0xf28 <nwkRxSeriveDataInd+0x28>
     f0c:	17 96       	adiw	r26, 0x07	; 7
     f0e:	ed 91       	ld	r30, X+
     f10:	fc 91       	ld	r31, X
     f12:	18 97       	sbiw	r26, 0x08	; 8
     f14:	20 81       	ld	r18, Z
     f16:	22 23       	and	r18, r18
     f18:	19 f0       	breq	.+6      	; 0xf20 <nwkRxSeriveDataInd+0x20>
     f1a:	21 30       	cpi	r18, 0x01	; 1
     f1c:	19 f0       	breq	.+6      	; 0xf24 <nwkRxSeriveDataInd+0x24>
     f1e:	06 c0       	rjmp	.+12     	; 0xf2c <nwkRxSeriveDataInd+0x2c>
     f20:	22 c5       	rjmp	.+2628   	; 0x1966 <nwkTxAckReceived>
     f22:	08 95       	ret
     f24:	de cf       	rjmp	.-68     	; 0xee2 <nwkRouteErrorReceived>
     f26:	08 95       	ret
     f28:	80 e0       	ldi	r24, 0x00	; 0
     f2a:	08 95       	ret
     f2c:	80 e0       	ldi	r24, 0x00	; 0
     f2e:	08 95       	ret

00000f30 <nwkRxDuplicateRejectionTimerHandler>:
     f30:	bc 01       	movw	r22, r24
     f32:	e7 e2       	ldi	r30, 0x27	; 39
     f34:	f7 e0       	ldi	r31, 0x07	; 7
     f36:	29 e5       	ldi	r18, 0x59	; 89
     f38:	37 e0       	ldi	r19, 0x07	; 7
     f3a:	40 e0       	ldi	r20, 0x00	; 0
     f3c:	51 e0       	ldi	r21, 0x01	; 1
     f3e:	90 81       	ld	r25, Z
     f40:	99 23       	and	r25, r25
     f42:	19 f0       	breq	.+6      	; 0xf4a <nwkRxDuplicateRejectionTimerHandler+0x1a>
     f44:	91 50       	subi	r25, 0x01	; 1
     f46:	90 83       	st	Z, r25
     f48:	45 2f       	mov	r20, r21
     f4a:	35 96       	adiw	r30, 0x05	; 5
     f4c:	e2 17       	cp	r30, r18
     f4e:	f3 07       	cpc	r31, r19
     f50:	b1 f7       	brne	.-20     	; 0xf3e <nwkRxDuplicateRejectionTimerHandler+0xe>
     f52:	44 23       	and	r20, r20
     f54:	19 f0       	breq	.+6      	; 0xf5c <nwkRxDuplicateRejectionTimerHandler+0x2c>
     f56:	cb 01       	movw	r24, r22
     f58:	0c 94 c1 0f 	jmp	0x1f82	; 0x1f82 <SYS_TimerStart>
     f5c:	08 95       	ret

00000f5e <nwkRxInit>:
     f5e:	e7 e2       	ldi	r30, 0x27	; 39
     f60:	f7 e0       	ldi	r31, 0x07	; 7
     f62:	89 e5       	ldi	r24, 0x59	; 89
     f64:	97 e0       	ldi	r25, 0x07	; 7
     f66:	10 82       	st	Z, r1
     f68:	35 96       	adiw	r30, 0x05	; 5
     f6a:	e8 17       	cp	r30, r24
     f6c:	f9 07       	cpc	r31, r25
     f6e:	d9 f7       	brne	.-10     	; 0xf66 <nwkRxInit+0x8>
     f70:	e5 e1       	ldi	r30, 0x15	; 21
     f72:	f7 e0       	ldi	r31, 0x07	; 7
     f74:	84 e6       	ldi	r24, 0x64	; 100
     f76:	90 e0       	ldi	r25, 0x00	; 0
     f78:	a0 e0       	ldi	r26, 0x00	; 0
     f7a:	b0 e0       	ldi	r27, 0x00	; 0
     f7c:	86 83       	std	Z+6, r24	; 0x06
     f7e:	97 83       	std	Z+7, r25	; 0x07
     f80:	a0 87       	std	Z+8, r26	; 0x08
     f82:	b1 87       	std	Z+9, r27	; 0x09
     f84:	12 86       	std	Z+10, r1	; 0x0a
     f86:	88 e9       	ldi	r24, 0x98	; 152
     f88:	97 e0       	ldi	r25, 0x07	; 7
     f8a:	94 87       	std	Z+12, r25	; 0x0c
     f8c:	83 87       	std	Z+11, r24	; 0x0b
     f8e:	60 e8       	ldi	r22, 0x80	; 128
     f90:	77 e0       	ldi	r23, 0x07	; 7
     f92:	80 e0       	ldi	r24, 0x00	; 0
     f94:	92 cc       	rjmp	.-1756   	; 0x8ba <NWK_OpenEndpoint>
     f96:	08 95       	ret

00000f98 <PHY_DataInd>:
     f98:	cf 93       	push	r28
     f9a:	df 93       	push	r29
     f9c:	dc 01       	movw	r26, r24
     f9e:	ed 91       	ld	r30, X+
     fa0:	fc 91       	ld	r31, X
     fa2:	11 97       	sbiw	r26, 0x01	; 1
     fa4:	21 81       	ldd	r18, Z+1	; 0x01
     fa6:	28 38       	cpi	r18, 0x88	; 136
     fa8:	f9 f4       	brne	.+62     	; 0xfe8 <PHY_DataInd+0x50>
     faa:	20 81       	ld	r18, Z
     fac:	2f 7d       	andi	r18, 0xDF	; 223
     fae:	21 34       	cpi	r18, 0x41	; 65
     fb0:	d9 f4       	brne	.+54     	; 0xfe8 <PHY_DataInd+0x50>
     fb2:	12 96       	adiw	r26, 0x02	; 2
     fb4:	2c 91       	ld	r18, X
     fb6:	20 31       	cpi	r18, 0x10	; 16
     fb8:	b8 f0       	brcs	.+46     	; 0xfe8 <PHY_DataInd+0x50>
     fba:	ec 01       	movw	r28, r24
     fbc:	8b dd       	rcall	.-1258   	; 0xad4 <nwkFrameAlloc>
     fbe:	00 97       	sbiw	r24, 0x00	; 0
     fc0:	99 f0       	breq	.+38     	; 0xfe8 <PHY_DataInd+0x50>
     fc2:	20 e2       	ldi	r18, 0x20	; 32
     fc4:	fc 01       	movw	r30, r24
     fc6:	20 83       	st	Z, r18
     fc8:	2a 81       	ldd	r18, Y+2	; 0x02
     fca:	21 83       	std	Z+1, r18	; 0x01
     fcc:	2b 81       	ldd	r18, Y+3	; 0x03
     fce:	ed 57       	subi	r30, 0x7D	; 125
     fd0:	ff 4f       	sbci	r31, 0xFF	; 255
     fd2:	20 83       	st	Z, r18
     fd4:	2c 81       	ldd	r18, Y+4	; 0x04
     fd6:	31 96       	adiw	r30, 0x01	; 1
     fd8:	20 83       	st	Z, r18
     fda:	4a 81       	ldd	r20, Y+2	; 0x02
     fdc:	50 e0       	ldi	r21, 0x00	; 0
     fde:	68 81       	ld	r22, Y
     fe0:	79 81       	ldd	r23, Y+1	; 0x01
     fe2:	02 96       	adiw	r24, 0x02	; 2
     fe4:	0e 94 c2 16 	call	0x2d84	; 0x2d84 <memcpy>
     fe8:	df 91       	pop	r29
     fea:	cf 91       	pop	r28
     fec:	08 95       	ret

00000fee <nwkRxDecryptConf>:

/*************************************************************************//**
*****************************************************************************/
void nwkRxDecryptConf(NwkFrame_t *frame, bool status)
{
	if (status) {
     fee:	66 23       	and	r22, r22
     ff0:	21 f0       	breq	.+8      	; 0xffa <nwkRxDecryptConf+0xc>
		frame->state = NWK_RX_STATE_INDICATE;
     ff2:	22 e2       	ldi	r18, 0x22	; 34
     ff4:	fc 01       	movw	r30, r24
     ff6:	20 83       	st	Z, r18
     ff8:	08 95       	ret
	} else {
		frame->state = NWK_RX_STATE_FINISH;
     ffa:	24 e2       	ldi	r18, 0x24	; 36
     ffc:	fc 01       	movw	r30, r24
     ffe:	20 83       	st	Z, r18
    1000:	08 95       	ret

00001002 <nwkRxTaskHandler>:

/*************************************************************************//**
*  @brief Rx Module task handler
*****************************************************************************/
void nwkRxTaskHandler(void)
{
    1002:	2f 92       	push	r2
    1004:	3f 92       	push	r3
    1006:	4f 92       	push	r4
    1008:	5f 92       	push	r5
    100a:	6f 92       	push	r6
    100c:	7f 92       	push	r7
    100e:	8f 92       	push	r8
    1010:	9f 92       	push	r9
    1012:	af 92       	push	r10
    1014:	bf 92       	push	r11
    1016:	cf 92       	push	r12
    1018:	df 92       	push	r13
    101a:	ef 92       	push	r14
    101c:	ff 92       	push	r15
    101e:	0f 93       	push	r16
    1020:	1f 93       	push	r17
    1022:	cf 93       	push	r28
    1024:	df 93       	push	r29
    1026:	cd b7       	in	r28, 0x3d	; 61
    1028:	de b7       	in	r29, 0x3e	; 62
    102a:	2c 97       	sbiw	r28, 0x0c	; 12
    102c:	0f b6       	in	r0, 0x3f	; 63
    102e:	f8 94       	cli
    1030:	de bf       	out	0x3e, r29	; 62
    1032:	0f be       	out	0x3f, r0	; 63
    1034:	cd bf       	out	0x3d, r28	; 61
	NwkFrame_t *frame = NULL;
    1036:	00 e0       	ldi	r16, 0x00	; 0
    1038:	10 e0       	ldi	r17, 0x00	; 0

	if (ack) {
		nwkRxSendAck(frame);
	}

	frame->state = NWK_RX_STATE_FINISH;
    103a:	0f 2e       	mov	r0, r31
    103c:	f4 e2       	ldi	r31, 0x24	; 36
    103e:	bf 2e       	mov	r11, r31
    1040:	f0 2d       	mov	r31, r0

	if (NWK_BROADCAST_PANID == frame->header.macDstPanId) {
		ack = false;
	}

	if (NWK_BROADCAST_ADDR == nwkIb.addr) {
    1042:	0f 2e       	mov	r0, r31
    1044:	fd e5       	ldi	r31, 0x5D	; 93
    1046:	ef 2e       	mov	r14, r31
    1048:	f9 e0       	ldi	r31, 0x09	; 9
    104a:	ff 2e       	mov	r15, r31
    104c:	f0 2d       	mov	r31, r0
	}

	if (NWK_BROADCAST_ADDR == frame->header.macDstAddr &&
			nwkIb.addr == frame->header.nwkDstAddr &&
			0 == frame->header.nwkFcf.multicast) {
		ack = true;
    104e:	aa 24       	eor	r10, r10
    1050:	a3 94       	inc	r10
			header->nwkDstAddr) ? NWK_IND_OPT_BROADCAST : 0;
	ind.options
		|= (header->nwkSrcAddr ==
			header->macSrcAddr) ? NWK_IND_OPT_LOCAL : 0;
	ind.options
		|= (NWK_BROADCAST_PANID ==
    1052:	68 94       	set
    1054:	66 24       	eor	r6, r6
    1056:	64 f8       	bld	r6, 4
	ind.options |= (header->nwkFcf.multicast) ? NWK_IND_OPT_MULTICAST : 0;
	ind.options
		|= (NWK_BROADCAST_ADDR ==
			header->nwkDstAddr) ? NWK_IND_OPT_BROADCAST : 0;
	ind.options
		|= (header->nwkSrcAddr ==
    1058:	68 94       	set
    105a:	55 24       	eor	r5, r5
    105c:	53 f8       	bld	r5, 3
		= (header->nwkFcf.ackRequest) ? NWK_IND_OPT_ACK_REQUESTED : 0;
	ind.options |= (header->nwkFcf.security) ? NWK_IND_OPT_SECURED : 0;
	ind.options |= (header->nwkFcf.linkLocal) ? NWK_IND_OPT_LINK_LOCAL : 0;
	ind.options |= (header->nwkFcf.multicast) ? NWK_IND_OPT_MULTICAST : 0;
	ind.options
		|= (NWK_BROADCAST_ADDR ==
    105e:	68 94       	set
    1060:	44 24       	eor	r4, r4
    1062:	42 f8       	bld	r4, 2
/*************************************************************************//**
*****************************************************************************/
static bool nwkRxRejectDuplicate(NwkFrameHeader_t *header)
{
	NwkDuplicateRejectionEntry_t *entry;
	NwkDuplicateRejectionEntry_t *freeEntry = NULL;
    1064:	21 2c       	mov	r2, r1
    1066:	31 2c       	mov	r3, r1
	}

	freeEntry->src = header->nwkSrcAddr;
	freeEntry->seq = header->nwkSeq;
	freeEntry->mask = 1;
	freeEntry->ttl = DUPLICATE_REJECTION_TTL;
    1068:	0f 2e       	mov	r0, r31
    106a:	ff e1       	ldi	r31, 0x1F	; 31
    106c:	7f 2e       	mov	r7, r31
    106e:	f0 2d       	mov	r31, r0
					}
	#endif
					return true;
				}

				entry->mask |= (1 << diff);
    1070:	cc 24       	eor	r12, r12
    1072:	c3 94       	inc	r12
    1074:	d1 2c       	mov	r13, r1
*****************************************************************************/
void nwkRxTaskHandler(void)
{
	NwkFrame_t *frame = NULL;

	while (NULL != (frame = nwkFrameNext(frame))) {
    1076:	ef c1       	rjmp	.+990    	; 0x1456 <nwkRxTaskHandler+0x454>
		switch (frame->state) {
    1078:	d8 01       	movw	r26, r16
    107a:	8c 91       	ld	r24, X
    107c:	82 32       	cpi	r24, 0x22	; 34
    107e:	09 f4       	brne	.+2      	; 0x1082 <nwkRxTaskHandler+0x80>
    1080:	1a c1       	rjmp	.+564    	; 0x12b6 <nwkRxTaskHandler+0x2b4>
    1082:	30 f4       	brcc	.+12     	; 0x1090 <nwkRxTaskHandler+0x8e>
    1084:	80 32       	cpi	r24, 0x20	; 32
    1086:	59 f0       	breq	.+22     	; 0x109e <nwkRxTaskHandler+0x9c>
    1088:	81 32       	cpi	r24, 0x21	; 33
    108a:	09 f4       	brne	.+2      	; 0x108e <nwkRxTaskHandler+0x8c>
    108c:	10 c1       	rjmp	.+544    	; 0x12ae <nwkRxTaskHandler+0x2ac>
    108e:	e3 c1       	rjmp	.+966    	; 0x1456 <nwkRxTaskHandler+0x454>
    1090:	83 32       	cpi	r24, 0x23	; 35
    1092:	09 f4       	brne	.+2      	; 0x1096 <nwkRxTaskHandler+0x94>
    1094:	db c1       	rjmp	.+950    	; 0x144c <nwkRxTaskHandler+0x44a>
    1096:	84 32       	cpi	r24, 0x24	; 36
    1098:	09 f4       	brne	.+2      	; 0x109c <nwkRxTaskHandler+0x9a>
    109a:	db c1       	rjmp	.+950    	; 0x1452 <nwkRxTaskHandler+0x450>
    109c:	dc c1       	rjmp	.+952    	; 0x1456 <nwkRxTaskHandler+0x454>
*****************************************************************************/
static void nwkRxHandleReceivedFrame(NwkFrame_t *frame)
{
	NwkFrameHeader_t *header = &frame->header;

	frame->state = NWK_RX_STATE_FINISH;
    109e:	f8 01       	movw	r30, r16
    10a0:	b0 82       	st	Z, r11
	if (header->nwkFcf.multicast && header->nwkFcf.ackRequest) {
		return;
	}

#else
	if (header->nwkFcf.multicast) {
    10a2:	83 85       	ldd	r24, Z+11	; 0x0b
    10a4:	83 fd       	sbrc	r24, 3
    10a6:	d7 c1       	rjmp	.+942    	; 0x1456 <nwkRxTaskHandler+0x454>
		return;
	}
#endif

	if (NWK_BROADCAST_PANID == header->macDstPanId) {
    10a8:	25 81       	ldd	r18, Z+5	; 0x05
    10aa:	36 81       	ldd	r19, Z+6	; 0x06
    10ac:	2f 3f       	cpi	r18, 0xFF	; 255
    10ae:	3f 4f       	sbci	r19, 0xFF	; 255
    10b0:	c9 f4       	brne	.+50     	; 0x10e4 <nwkRxTaskHandler+0xe2>
		if (nwkIb.addr == header->nwkDstAddr || NWK_BROADCAST_ADDR ==
    10b2:	d8 01       	movw	r26, r16
    10b4:	1f 96       	adiw	r26, 0x0f	; 15
    10b6:	2d 91       	ld	r18, X+
    10b8:	3c 91       	ld	r19, X
    10ba:	50 97       	sbiw	r26, 0x10	; 16
    10bc:	f7 01       	movw	r30, r14
    10be:	40 81       	ld	r20, Z
    10c0:	51 81       	ldd	r21, Z+1	; 0x01
    10c2:	42 17       	cp	r20, r18
    10c4:	53 07       	cpc	r21, r19
    10c6:	21 f0       	breq	.+8      	; 0x10d0 <nwkRxTaskHandler+0xce>
    10c8:	2f 3f       	cpi	r18, 0xFF	; 255
    10ca:	3f 4f       	sbci	r19, 0xFF	; 255
    10cc:	09 f0       	breq	.+2      	; 0x10d0 <nwkRxTaskHandler+0xce>
    10ce:	c3 c1       	rjmp	.+902    	; 0x1456 <nwkRxTaskHandler+0x454>
				header->nwkDstAddr) {
    #ifdef NWK_ENABLE_SECURITY
			if (header->nwkFcf.security) {
    10d0:	81 ff       	sbrs	r24, 1
    10d2:	04 c0       	rjmp	.+8      	; 0x10dc <nwkRxTaskHandler+0xda>
				frame->state = NWK_RX_STATE_DECRYPT;
    10d4:	e1 e2       	ldi	r30, 0x21	; 33
    10d6:	d8 01       	movw	r26, r16
    10d8:	ec 93       	st	X, r30
    10da:	bd c1       	rjmp	.+890    	; 0x1456 <nwkRxTaskHandler+0x454>
			} else
    #endif
			frame->state = NWK_RX_STATE_INDICATE;
    10dc:	e2 e2       	ldi	r30, 0x22	; 34
    10de:	d8 01       	movw	r26, r16
    10e0:	ec 93       	st	X, r30
    10e2:	b9 c1       	rjmp	.+882    	; 0x1456 <nwkRxTaskHandler+0x454>
	if (!NWK_FilterAddress(header->macSrcAddr, &frame->rx.lqi)) {
		return;
	}
#endif

	if (NWK_BROADCAST_ADDR == header->nwkDstAddr &&
    10e4:	d8 01       	movw	r26, r16
    10e6:	1f 96       	adiw	r26, 0x0f	; 15
    10e8:	2d 91       	ld	r18, X+
    10ea:	3c 91       	ld	r19, X
    10ec:	50 97       	sbiw	r26, 0x10	; 16
    10ee:	2f 3f       	cpi	r18, 0xFF	; 255
    10f0:	3f 4f       	sbci	r19, 0xFF	; 255
    10f2:	11 f4       	brne	.+4      	; 0x10f8 <nwkRxTaskHandler+0xf6>
    10f4:	80 fd       	sbrc	r24, 0
    10f6:	af c1       	rjmp	.+862    	; 0x1456 <nwkRxTaskHandler+0x454>
			header->nwkFcf.ackRequest) {
		return;
	}

	if (nwkIb.addr == header->nwkSrcAddr) {
    10f8:	f7 01       	movw	r30, r14
    10fa:	20 81       	ld	r18, Z
    10fc:	31 81       	ldd	r19, Z+1	; 0x01
    10fe:	d8 01       	movw	r26, r16
    1100:	1d 96       	adiw	r26, 0x0d	; 13
    1102:	8d 91       	ld	r24, X+
    1104:	9c 91       	ld	r25, X
    1106:	1e 97       	sbiw	r26, 0x0e	; 14
    1108:	28 17       	cp	r18, r24
    110a:	39 07       	cpc	r19, r25
    110c:	09 f4       	brne	.+2      	; 0x1110 <nwkRxTaskHandler+0x10e>
    110e:	a3 c1       	rjmp	.+838    	; 0x1456 <nwkRxTaskHandler+0x454>
		return;
	}

#ifdef NWK_ENABLE_ROUTING
	nwkRouteFrameReceived(frame);
    1110:	c8 01       	movw	r24, r16
    1112:	e6 dd       	rcall	.-1076   	; 0xce0 <nwkRouteFrameReceived>
    1114:	e3 e2       	ldi	r30, 0x23	; 35
    1116:	f7 e0       	ldi	r31, 0x07	; 7
    1118:	80 e0       	ldi	r24, 0x00	; 0
    111a:	90 e0       	ldi	r25, 0x00	; 0
/*************************************************************************//**
*****************************************************************************/
static bool nwkRxRejectDuplicate(NwkFrameHeader_t *header)
{
	NwkDuplicateRejectionEntry_t *entry;
	NwkDuplicateRejectionEntry_t *freeEntry = NULL;
    111c:	82 2c       	mov	r8, r2
    111e:	93 2c       	mov	r9, r3

	for (uint8_t i = 0; i < NWK_DUPLICATE_REJECTION_TABLE_SIZE; i++) {
		entry = &nwkRxDuplicateRejectionTable[i];
    1120:	9c 01       	movw	r18, r24

		if (entry->ttl && header->nwkSrcAddr == entry->src) {
    1122:	44 81       	ldd	r20, Z+4	; 0x04
    1124:	44 23       	and	r20, r20
    1126:	09 f4       	brne	.+2      	; 0x112a <nwkRxTaskHandler+0x128>
    1128:	74 c0       	rjmp	.+232    	; 0x1212 <nwkRxTaskHandler+0x210>
    112a:	d8 01       	movw	r26, r16
    112c:	1d 96       	adiw	r26, 0x0d	; 13
    112e:	6d 91       	ld	r22, X+
    1130:	7c 91       	ld	r23, X
    1132:	1e 97       	sbiw	r26, 0x0e	; 14
    1134:	40 81       	ld	r20, Z
    1136:	51 81       	ldd	r21, Z+1	; 0x01
    1138:	64 17       	cp	r22, r20
    113a:	75 07       	cpc	r23, r21
    113c:	09 f0       	breq	.+2      	; 0x1140 <nwkRxTaskHandler+0x13e>
    113e:	6a c0       	rjmp	.+212    	; 0x1214 <nwkRxTaskHandler+0x212>
			uint8_t diff = (int8_t)entry->seq - header->nwkSeq;
    1140:	1c 96       	adiw	r26, 0x0c	; 12
    1142:	8c 91       	ld	r24, X
    1144:	1c 97       	sbiw	r26, 0x0c	; 12
    1146:	f9 01       	movw	r30, r18
    1148:	ee 0f       	add	r30, r30
    114a:	ff 1f       	adc	r31, r31
    114c:	ee 0f       	add	r30, r30
    114e:	ff 1f       	adc	r31, r31
    1150:	e2 0f       	add	r30, r18
    1152:	f3 1f       	adc	r31, r19
    1154:	ed 5d       	subi	r30, 0xDD	; 221
    1156:	f8 4f       	sbci	r31, 0xF8	; 248
    1158:	92 81       	ldd	r25, Z+2	; 0x02
    115a:	98 1b       	sub	r25, r24

			if (diff < 8) {
    115c:	98 30       	cpi	r25, 0x08	; 8
    115e:	08 f0       	brcs	.+2      	; 0x1162 <nwkRxTaskHandler+0x160>
    1160:	3e c0       	rjmp	.+124    	; 0x11de <nwkRxTaskHandler+0x1dc>
				if (entry->mask & (1 << diff)) {
    1162:	f9 01       	movw	r30, r18
    1164:	ee 0f       	add	r30, r30
    1166:	ff 1f       	adc	r31, r31
    1168:	ee 0f       	add	r30, r30
    116a:	ff 1f       	adc	r31, r31
    116c:	e2 0f       	add	r30, r18
    116e:	f3 1f       	adc	r31, r19
    1170:	ed 5d       	subi	r30, 0xDD	; 221
    1172:	f8 4f       	sbci	r31, 0xF8	; 248
    1174:	83 81       	ldd	r24, Z+3	; 0x03
    1176:	48 2f       	mov	r20, r24
    1178:	50 e0       	ldi	r21, 0x00	; 0
    117a:	09 2e       	mov	r0, r25
    117c:	02 c0       	rjmp	.+4      	; 0x1182 <nwkRxTaskHandler+0x180>
    117e:	55 95       	asr	r21
    1180:	47 95       	ror	r20
    1182:	0a 94       	dec	r0
    1184:	e2 f7       	brpl	.-8      	; 0x117e <nwkRxTaskHandler+0x17c>
    1186:	40 ff       	sbrs	r20, 0
    1188:	17 c0       	rjmp	.+46     	; 0x11b8 <nwkRxTaskHandler+0x1b6>
	#ifdef NWK_ENABLE_ROUTING
					if (nwkIb.addr == header->macDstAddr) {
    118a:	f7 01       	movw	r30, r14
    118c:	20 81       	ld	r18, Z
    118e:	31 81       	ldd	r19, Z+1	; 0x01
    1190:	17 96       	adiw	r26, 0x07	; 7
    1192:	8d 91       	ld	r24, X+
    1194:	9c 91       	ld	r25, X
    1196:	18 97       	sbiw	r26, 0x08	; 8
    1198:	28 17       	cp	r18, r24
    119a:	39 07       	cpc	r19, r25
    119c:	09 f0       	breq	.+2      	; 0x11a0 <nwkRxTaskHandler+0x19e>
    119e:	5b c1       	rjmp	.+694    	; 0x1456 <nwkRxTaskHandler+0x454>
						nwkRouteRemove(
								header->nwkDstAddr,
								header->nwkFcf.multicast);
    11a0:	1b 96       	adiw	r26, 0x0b	; 11
    11a2:	6c 91       	ld	r22, X
    11a4:	1b 97       	sbiw	r26, 0x0b	; 11
    11a6:	63 fb       	bst	r22, 3
    11a8:	66 27       	eor	r22, r22
    11aa:	60 f9       	bld	r22, 0

			if (diff < 8) {
				if (entry->mask & (1 << diff)) {
	#ifdef NWK_ENABLE_ROUTING
					if (nwkIb.addr == header->macDstAddr) {
						nwkRouteRemove(
    11ac:	1f 96       	adiw	r26, 0x0f	; 15
    11ae:	8d 91       	ld	r24, X+
    11b0:	9c 91       	ld	r25, X
    11b2:	50 97       	sbiw	r26, 0x10	; 16
    11b4:	90 dd       	rcall	.-1248   	; 0xcd6 <nwkRouteRemove>
    11b6:	4f c1       	rjmp	.+670    	; 0x1456 <nwkRxTaskHandler+0x454>
					}
	#endif
					return true;
				}

				entry->mask |= (1 << diff);
    11b8:	f9 01       	movw	r30, r18
    11ba:	ee 0f       	add	r30, r30
    11bc:	ff 1f       	adc	r31, r31
    11be:	ee 0f       	add	r30, r30
    11c0:	ff 1f       	adc	r31, r31
    11c2:	2e 0f       	add	r18, r30
    11c4:	3f 1f       	adc	r19, r31
    11c6:	f9 01       	movw	r30, r18
    11c8:	ed 5d       	subi	r30, 0xDD	; 221
    11ca:	f8 4f       	sbci	r31, 0xF8	; 248
    11cc:	96 01       	movw	r18, r12
    11ce:	02 c0       	rjmp	.+4      	; 0x11d4 <nwkRxTaskHandler+0x1d2>
    11d0:	22 0f       	add	r18, r18
    11d2:	33 1f       	adc	r19, r19
    11d4:	9a 95       	dec	r25
    11d6:	e2 f7       	brpl	.-8      	; 0x11d0 <nwkRxTaskHandler+0x1ce>
    11d8:	82 2b       	or	r24, r18
    11da:	83 83       	std	Z+3, r24	; 0x03
    11dc:	43 c1       	rjmp	.+646    	; 0x1464 <nwkRxTaskHandler+0x462>
				return false;
			} else {
				uint8_t shift = -(int8_t)diff;

				entry->seq = header->nwkSeq;
    11de:	f9 01       	movw	r30, r18
    11e0:	ee 0f       	add	r30, r30
    11e2:	ff 1f       	adc	r31, r31
    11e4:	ee 0f       	add	r30, r30
    11e6:	ff 1f       	adc	r31, r31
    11e8:	2e 0f       	add	r18, r30
    11ea:	3f 1f       	adc	r19, r31
    11ec:	f9 01       	movw	r30, r18
    11ee:	ed 5d       	subi	r30, 0xDD	; 221
    11f0:	f8 4f       	sbci	r31, 0xF8	; 248
    11f2:	82 83       	std	Z+2, r24	; 0x02
				entry->mask = (entry->mask << shift) | 1;
    11f4:	83 81       	ldd	r24, Z+3	; 0x03
    11f6:	28 2f       	mov	r18, r24
    11f8:	30 e0       	ldi	r19, 0x00	; 0
    11fa:	91 95       	neg	r25
    11fc:	a9 01       	movw	r20, r18
    11fe:	02 c0       	rjmp	.+4      	; 0x1204 <nwkRxTaskHandler+0x202>
    1200:	44 0f       	add	r20, r20
    1202:	55 1f       	adc	r21, r21
    1204:	9a 95       	dec	r25
    1206:	e2 f7       	brpl	.-8      	; 0x1200 <nwkRxTaskHandler+0x1fe>
    1208:	ca 01       	movw	r24, r20
    120a:	81 60       	ori	r24, 0x01	; 1
    120c:	83 83       	std	Z+3, r24	; 0x03
				entry->ttl = DUPLICATE_REJECTION_TTL;
    120e:	74 82       	std	Z+4, r7	; 0x04
    1210:	29 c1       	rjmp	.+594    	; 0x1464 <nwkRxTaskHandler+0x462>
				return false;
			}
		}

		if (0 == entry->ttl) {
			freeEntry = entry;
    1212:	4f 01       	movw	r8, r30
    1214:	01 96       	adiw	r24, 0x01	; 1
    1216:	35 96       	adiw	r30, 0x05	; 5
static bool nwkRxRejectDuplicate(NwkFrameHeader_t *header)
{
	NwkDuplicateRejectionEntry_t *entry;
	NwkDuplicateRejectionEntry_t *freeEntry = NULL;

	for (uint8_t i = 0; i < NWK_DUPLICATE_REJECTION_TABLE_SIZE; i++) {
    1218:	8a 30       	cpi	r24, 0x0A	; 10
    121a:	91 05       	cpc	r25, r1
    121c:	09 f0       	breq	.+2      	; 0x1220 <nwkRxTaskHandler+0x21e>
    121e:	80 cf       	rjmp	.-256    	; 0x1120 <nwkRxTaskHandler+0x11e>
		if (0 == entry->ttl) {
			freeEntry = entry;
		}
	}

	if (NULL == freeEntry) {
    1220:	81 14       	cp	r8, r1
    1222:	91 04       	cpc	r9, r1
    1224:	09 f4       	brne	.+2      	; 0x1228 <nwkRxTaskHandler+0x226>
    1226:	17 c1       	rjmp	.+558    	; 0x1456 <nwkRxTaskHandler+0x454>
		return true;
	}

	freeEntry->src = header->nwkSrcAddr;
    1228:	d8 01       	movw	r26, r16
    122a:	1d 96       	adiw	r26, 0x0d	; 13
    122c:	8d 91       	ld	r24, X+
    122e:	9c 91       	ld	r25, X
    1230:	1e 97       	sbiw	r26, 0x0e	; 14
    1232:	f4 01       	movw	r30, r8
    1234:	91 83       	std	Z+1, r25	; 0x01
    1236:	80 83       	st	Z, r24
	freeEntry->seq = header->nwkSeq;
    1238:	1c 96       	adiw	r26, 0x0c	; 12
    123a:	8c 91       	ld	r24, X
    123c:	82 83       	std	Z+2, r24	; 0x02
	freeEntry->mask = 1;
    123e:	a3 82       	std	Z+3, r10	; 0x03
	freeEntry->ttl = DUPLICATE_REJECTION_TTL;
    1240:	74 82       	std	Z+4, r7	; 0x04

	SYS_TimerStart(&nwkRxDuplicateRejectionTimer);
    1242:	85 e1       	ldi	r24, 0x15	; 21
    1244:	97 e0       	ldi	r25, 0x07	; 7
    1246:	9d d6       	rcall	.+3386   	; 0x1f82 <SYS_TimerStart>
    1248:	0d c1       	rjmp	.+538    	; 0x1464 <nwkRxTaskHandler+0x462>
			frame->state = NWK_RX_STATE_INDICATE;
		}
	} else
#endif /* NWK_ENABLE_MULTICAST */
	{
		if (NWK_BROADCAST_ADDR == header->macDstAddr && nwkIb.addr !=
    124a:	d7 01       	movw	r26, r14
    124c:	2d 91       	ld	r18, X+
    124e:	3c 91       	ld	r19, X
				header->nwkDstAddr &&
    1250:	f8 01       	movw	r30, r16
    1252:	87 85       	ldd	r24, Z+15	; 0x0f
    1254:	90 89       	ldd	r25, Z+16	; 0x10
			frame->state = NWK_RX_STATE_INDICATE;
		}
	} else
#endif /* NWK_ENABLE_MULTICAST */
	{
		if (NWK_BROADCAST_ADDR == header->macDstAddr && nwkIb.addr !=
    1256:	28 17       	cp	r18, r24
    1258:	39 07       	cpc	r19, r25
    125a:	81 f0       	breq	.+32     	; 0x127c <nwkRxTaskHandler+0x27a>
				header->nwkDstAddr &&
    125c:	43 85       	ldd	r20, Z+11	; 0x0b
    125e:	42 fd       	sbrc	r20, 2
				0 == header->nwkFcf.linkLocal) {
			nwkTxBroadcastFrame(frame);
    1260:	0b c0       	rjmp	.+22     	; 0x1278 <nwkRxTaskHandler+0x276>
    1262:	c8 01       	movw	r24, r16
    1264:	3b d3       	rcall	.+1654   	; 0x18dc <nwkTxBroadcastFrame>
		}

		if (nwkIb.addr == header->nwkDstAddr || NWK_BROADCAST_ADDR ==
    1266:	d7 01       	movw	r26, r14
    1268:	2d 91       	ld	r18, X+
    126a:	3c 91       	ld	r19, X
    126c:	f8 01       	movw	r30, r16
    126e:	87 85       	ldd	r24, Z+15	; 0x0f
    1270:	90 89       	ldd	r25, Z+16	; 0x10
    1272:	28 17       	cp	r18, r24
    1274:	39 07       	cpc	r19, r25
    1276:	11 f0       	breq	.+4      	; 0x127c <nwkRxTaskHandler+0x27a>
    1278:	01 96       	adiw	r24, 0x01	; 1
    127a:	69 f4       	brne	.+26     	; 0x1296 <nwkRxTaskHandler+0x294>
				header->nwkDstAddr) {
    #ifdef NWK_ENABLE_SECURITY
			if (header->nwkFcf.security) {
    127c:	d8 01       	movw	r26, r16
    127e:	1b 96       	adiw	r26, 0x0b	; 11
    1280:	8c 91       	ld	r24, X
    1282:	1b 97       	sbiw	r26, 0x0b	; 11
    1284:	81 ff       	sbrs	r24, 1
    1286:	03 c0       	rjmp	.+6      	; 0x128e <nwkRxTaskHandler+0x28c>
				frame->state = NWK_RX_STATE_DECRYPT;
    1288:	e1 e2       	ldi	r30, 0x21	; 33
    128a:	ec 93       	st	X, r30
    128c:	e4 c0       	rjmp	.+456    	; 0x1456 <nwkRxTaskHandler+0x454>
			} else
    #endif
			frame->state = NWK_RX_STATE_INDICATE;
    128e:	e2 e2       	ldi	r30, 0x22	; 34
    1290:	d8 01       	movw	r26, r16
    1292:	ec 93       	st	X, r30
    1294:	e0 c0       	rjmp	.+448    	; 0x1456 <nwkRxTaskHandler+0x454>
		}

  #ifdef NWK_ENABLE_ROUTING
		else if (nwkIb.addr == header->macDstAddr) {
    1296:	d8 01       	movw	r26, r16
    1298:	17 96       	adiw	r26, 0x07	; 7
    129a:	8d 91       	ld	r24, X+
    129c:	9c 91       	ld	r25, X
    129e:	18 97       	sbiw	r26, 0x08	; 8
    12a0:	82 17       	cp	r24, r18
    12a2:	93 07       	cpc	r25, r19
    12a4:	09 f0       	breq	.+2      	; 0x12a8 <nwkRxTaskHandler+0x2a6>
    12a6:	d7 c0       	rjmp	.+430    	; 0x1456 <nwkRxTaskHandler+0x454>
			frame->state = NWK_RX_STATE_ROUTE;
    12a8:	e3 e2       	ldi	r30, 0x23	; 35
    12aa:	ec 93       	st	X, r30
		break;

#ifdef NWK_ENABLE_SECURITY
		case NWK_RX_STATE_DECRYPT:
		{
			nwkSecurityProcess(frame, false);
    12ac:	d4 c0       	rjmp	.+424    	; 0x1456 <nwkRxTaskHandler+0x454>
    12ae:	60 e0       	ldi	r22, 0x00	; 0
    12b0:	c8 01       	movw	r24, r16
    12b2:	ff d0       	rcall	.+510    	; 0x14b2 <nwkSecurityProcess>
		}
		break;
    12b4:	d0 c0       	rjmp	.+416    	; 0x1456 <nwkRxTaskHandler+0x454>
*****************************************************************************/
static void nwkRxHandleIndication(NwkFrame_t *frame)
{
	bool ack;

	nwkRxAckControl = 0;
    12b6:	10 92 22 07 	sts	0x0722, r1	; 0x800722 <nwkRxAckControl>
static bool nwkRxIndicateFrame(NwkFrame_t *frame)
{
	NwkFrameHeader_t *header = &frame->header;
	NWK_DataInd_t ind;

	if (NULL == nwkIb.endpoint[header->nwkDstEndpoint]) {
    12ba:	d8 01       	movw	r26, r16
    12bc:	51 96       	adiw	r26, 0x11	; 17
    12be:	8c 91       	ld	r24, X
    12c0:	51 97       	sbiw	r26, 0x11	; 17
    12c2:	82 95       	swap	r24
    12c4:	8f 70       	andi	r24, 0x0F	; 15
    12c6:	e8 2f       	mov	r30, r24
    12c8:	f0 e0       	ldi	r31, 0x00	; 0
    12ca:	ee 0f       	add	r30, r30
    12cc:	ff 1f       	adc	r31, r31
    12ce:	ed 59       	subi	r30, 0x9D	; 157
    12d0:	f6 4f       	sbci	r31, 0xF6	; 246
    12d2:	01 90       	ld	r0, Z+
    12d4:	f0 81       	ld	r31, Z
    12d6:	e0 2d       	mov	r30, r0
    12d8:	30 97       	sbiw	r30, 0x00	; 0
    12da:	09 f4       	brne	.+2      	; 0x12de <nwkRxTaskHandler+0x2dc>
    12dc:	60 c0       	rjmp	.+192    	; 0x139e <nwkRxTaskHandler+0x39c>
		return false;
	}

	ind.srcAddr = header->nwkSrcAddr;
    12de:	1d 96       	adiw	r26, 0x0d	; 13
    12e0:	2d 91       	ld	r18, X+
    12e2:	3c 91       	ld	r19, X
    12e4:	1e 97       	sbiw	r26, 0x0e	; 14
    12e6:	3a 83       	std	Y+2, r19	; 0x02
    12e8:	29 83       	std	Y+1, r18	; 0x01
	ind.dstAddr = header->nwkDstAddr;
    12ea:	1f 96       	adiw	r26, 0x0f	; 15
    12ec:	4d 91       	ld	r20, X+
    12ee:	5c 91       	ld	r21, X
    12f0:	50 97       	sbiw	r26, 0x10	; 16
    12f2:	5c 83       	std	Y+4, r21	; 0x04
    12f4:	4b 83       	std	Y+3, r20	; 0x03
	ind.srcEndpoint = header->nwkSrcEndpoint;
    12f6:	51 96       	adiw	r26, 0x11	; 17
    12f8:	9c 91       	ld	r25, X
    12fa:	51 97       	sbiw	r26, 0x11	; 17
    12fc:	9f 70       	andi	r25, 0x0F	; 15
    12fe:	9d 83       	std	Y+5, r25	; 0x05
	ind.dstEndpoint = header->nwkDstEndpoint;
    1300:	8e 83       	std	Y+6, r24	; 0x06
	ind.data = frame->payload;
    1302:	af 57       	subi	r26, 0x7F	; 127
    1304:	bf 4f       	sbci	r27, 0xFF	; 255
    1306:	8d 91       	ld	r24, X+
    1308:	9c 91       	ld	r25, X
    130a:	99 87       	std	Y+9, r25	; 0x09
    130c:	88 87       	std	Y+8, r24	; 0x08

/*************************************************************************//**
*****************************************************************************/
static inline uint8_t nwkFramePayloadSize(NwkFrame_t *frame)
{
	return frame->size - (frame->payload - frame->data);
    130e:	b8 01       	movw	r22, r16
    1310:	6e 5f       	subi	r22, 0xFE	; 254
    1312:	7f 4f       	sbci	r23, 0xFF	; 255
	ind.size = nwkFramePayloadSize(frame);
    1314:	86 1b       	sub	r24, r22
    1316:	97 0b       	sbc	r25, r23
    1318:	d8 01       	movw	r26, r16
    131a:	11 96       	adiw	r26, 0x01	; 1
    131c:	9c 91       	ld	r25, X
    131e:	11 97       	sbiw	r26, 0x01	; 1
    1320:	98 1b       	sub	r25, r24
    1322:	9a 87       	std	Y+10, r25	; 0x0a
	ind.lqi = frame->rx.lqi;
    1324:	ad 57       	subi	r26, 0x7D	; 125
    1326:	bf 4f       	sbci	r27, 0xFF	; 255
    1328:	8c 91       	ld	r24, X
    132a:	8b 87       	std	Y+11, r24	; 0x0b
	ind.rssi = frame->rx.rssi;
    132c:	11 96       	adiw	r26, 0x01	; 1
    132e:	8c 91       	ld	r24, X
    1330:	8c 87       	std	Y+12, r24	; 0x0c

	ind.options
		= (header->nwkFcf.ackRequest) ? NWK_IND_OPT_ACK_REQUESTED : 0;
    1332:	d8 01       	movw	r26, r16
    1334:	1b 96       	adiw	r26, 0x0b	; 11
    1336:	9c 91       	ld	r25, X
	ind.options |= (header->nwkFcf.security) ? NWK_IND_OPT_SECURED : 0;
    1338:	69 2f       	mov	r22, r25
    133a:	63 70       	andi	r22, 0x03	; 3
	ind.options |= (header->nwkFcf.linkLocal) ? NWK_IND_OPT_LINK_LOCAL : 0;
    133c:	92 fd       	sbrc	r25, 2
    133e:	02 c0       	rjmp	.+4      	; 0x1344 <nwkRxTaskHandler+0x342>
    1340:	80 e0       	ldi	r24, 0x00	; 0
    1342:	01 c0       	rjmp	.+2      	; 0x1346 <nwkRxTaskHandler+0x344>
    1344:	80 e2       	ldi	r24, 0x20	; 32
    1346:	86 2b       	or	r24, r22
	ind.options |= (header->nwkFcf.multicast) ? NWK_IND_OPT_MULTICAST : 0;
    1348:	93 fd       	sbrc	r25, 3
    134a:	02 c0       	rjmp	.+4      	; 0x1350 <nwkRxTaskHandler+0x34e>
    134c:	90 e0       	ldi	r25, 0x00	; 0
    134e:	01 c0       	rjmp	.+2      	; 0x1352 <nwkRxTaskHandler+0x350>
    1350:	90 e4       	ldi	r25, 0x40	; 64
    1352:	89 2b       	or	r24, r25
	ind.options
		|= (NWK_BROADCAST_ADDR ==
    1354:	4f 3f       	cpi	r20, 0xFF	; 255
    1356:	5f 4f       	sbci	r21, 0xFF	; 255
    1358:	11 f0       	breq	.+4      	; 0x135e <nwkRxTaskHandler+0x35c>
    135a:	90 e0       	ldi	r25, 0x00	; 0
    135c:	01 c0       	rjmp	.+2      	; 0x1360 <nwkRxTaskHandler+0x35e>
    135e:	94 2d       	mov	r25, r4
    1360:	89 2b       	or	r24, r25
			header->nwkDstAddr) ? NWK_IND_OPT_BROADCAST : 0;
	ind.options
		|= (header->nwkSrcAddr ==
    1362:	d8 01       	movw	r26, r16
    1364:	19 96       	adiw	r26, 0x09	; 9
    1366:	4d 91       	ld	r20, X+
    1368:	5c 91       	ld	r21, X
    136a:	1a 97       	sbiw	r26, 0x0a	; 10
    136c:	24 17       	cp	r18, r20
    136e:	35 07       	cpc	r19, r21
    1370:	11 f0       	breq	.+4      	; 0x1376 <nwkRxTaskHandler+0x374>
    1372:	90 e0       	ldi	r25, 0x00	; 0
    1374:	01 c0       	rjmp	.+2      	; 0x1378 <nwkRxTaskHandler+0x376>
    1376:	95 2d       	mov	r25, r5
    1378:	89 2b       	or	r24, r25
    137a:	8f 83       	std	Y+7, r24	; 0x07
			header->macSrcAddr) ? NWK_IND_OPT_LOCAL : 0;
	ind.options
		|= (NWK_BROADCAST_PANID ==
    137c:	d8 01       	movw	r26, r16
    137e:	15 96       	adiw	r26, 0x05	; 5
    1380:	2d 91       	ld	r18, X+
    1382:	3c 91       	ld	r19, X
    1384:	16 97       	sbiw	r26, 0x06	; 6
    1386:	2f 3f       	cpi	r18, 0xFF	; 255
    1388:	3f 4f       	sbci	r19, 0xFF	; 255
    138a:	11 f0       	breq	.+4      	; 0x1390 <nwkRxTaskHandler+0x38e>
    138c:	90 e0       	ldi	r25, 0x00	; 0
    138e:	01 c0       	rjmp	.+2      	; 0x1392 <nwkRxTaskHandler+0x390>
    1390:	96 2d       	mov	r25, r6
    1392:	89 2b       	or	r24, r25
    1394:	8f 83       	std	Y+7, r24	; 0x07
			header->macDstPanId) ? NWK_IND_OPT_BROADCAST_PAN_ID : 0;

	return nwkIb.endpoint[header->nwkDstEndpoint](&ind);
    1396:	ce 01       	movw	r24, r28
    1398:	01 96       	adiw	r24, 0x01	; 1
    139a:	19 95       	eicall
    139c:	01 c0       	rjmp	.+2      	; 0x13a0 <nwkRxTaskHandler+0x39e>
{
	NwkFrameHeader_t *header = &frame->header;
	NWK_DataInd_t ind;

	if (NULL == nwkIb.endpoint[header->nwkDstEndpoint]) {
		return false;
    139e:	80 e0       	ldi	r24, 0x00	; 0
	bool ack;

	nwkRxAckControl = 0;
	ack = nwkRxIndicateFrame(frame);

	if (0 == frame->header.nwkFcf.ackRequest) {
    13a0:	f8 01       	movw	r30, r16
    13a2:	93 85       	ldd	r25, Z+11	; 0x0b
    13a4:	90 ff       	sbrs	r25, 0
		ack = false;
    13a6:	80 e0       	ldi	r24, 0x00	; 0
	}

	if (NWK_BROADCAST_ADDR == frame->header.macDstAddr &&
    13a8:	d8 01       	movw	r26, r16
    13aa:	17 96       	adiw	r26, 0x07	; 7
    13ac:	2d 91       	ld	r18, X+
    13ae:	3c 91       	ld	r19, X
    13b0:	18 97       	sbiw	r26, 0x08	; 8
    13b2:	2f 3f       	cpi	r18, 0xFF	; 255
    13b4:	3f 4f       	sbci	r19, 0xFF	; 255
    13b6:	69 f4       	brne	.+26     	; 0x13d2 <nwkRxTaskHandler+0x3d0>
    13b8:	f7 01       	movw	r30, r14
    13ba:	40 81       	ld	r20, Z
    13bc:	51 81       	ldd	r21, Z+1	; 0x01
    13be:	d8 01       	movw	r26, r16
    13c0:	1f 96       	adiw	r26, 0x0f	; 15
    13c2:	2d 91       	ld	r18, X+
    13c4:	3c 91       	ld	r19, X
    13c6:	50 97       	sbiw	r26, 0x10	; 16
    13c8:	42 17       	cp	r20, r18
    13ca:	53 07       	cpc	r21, r19
    13cc:	11 f4       	brne	.+4      	; 0x13d2 <nwkRxTaskHandler+0x3d0>
			nwkIb.addr == frame->header.nwkDstAddr &&
    13ce:	93 ff       	sbrs	r25, 3
			0 == frame->header.nwkFcf.multicast) {
		ack = true;
    13d0:	8a 2d       	mov	r24, r10
	}

	if (NWK_BROADCAST_PANID == frame->header.macDstPanId) {
    13d2:	f8 01       	movw	r30, r16
    13d4:	25 81       	ldd	r18, Z+5	; 0x05
    13d6:	36 81       	ldd	r19, Z+6	; 0x06
    13d8:	2f 3f       	cpi	r18, 0xFF	; 255
    13da:	3f 4f       	sbci	r19, 0xFF	; 255
    13dc:	a1 f1       	breq	.+104    	; 0x1446 <nwkRxTaskHandler+0x444>
		ack = false;
	}

	if (NWK_BROADCAST_ADDR == nwkIb.addr) {
    13de:	d7 01       	movw	r26, r14
    13e0:	2d 91       	ld	r18, X+
    13e2:	3c 91       	ld	r19, X
    13e4:	2f 3f       	cpi	r18, 0xFF	; 255
    13e6:	3f 4f       	sbci	r19, 0xFF	; 255
		ack = false;
	}

	if (ack) {
    13e8:	71 f1       	breq	.+92     	; 0x1446 <nwkRxTaskHandler+0x444>
static void nwkRxSendAck(NwkFrame_t *frame)
{
	NwkFrame_t *ack;
	NwkCommandAck_t *command;

	if (NULL == (ack = nwkFrameAlloc())) {
    13ea:	88 23       	and	r24, r24
    13ec:	61 f1       	breq	.+88     	; 0x1446 <nwkRxTaskHandler+0x444>
    13ee:	72 db       	rcall	.-2332   	; 0xad4 <nwkFrameAlloc>
    13f0:	4c 01       	movw	r8, r24
    13f2:	00 97       	sbiw	r24, 0x00	; 0
		return;
	}

	nwkFrameCommandInit(ack);
    13f4:	41 f1       	breq	.+80     	; 0x1446 <nwkRxTaskHandler+0x444>
    13f6:	d3 db       	rcall	.-2138   	; 0xb9e <nwkFrameCommandInit>

	ack->size += sizeof(NwkCommandAck_t);
    13f8:	f4 01       	movw	r30, r8
    13fa:	81 81       	ldd	r24, Z+1	; 0x01
    13fc:	8d 5f       	subi	r24, 0xFD	; 253
    13fe:	81 83       	std	Z+1, r24	; 0x01
	ack->tx.confirm = NULL;
    1400:	e9 57       	subi	r30, 0x79	; 121
    1402:	ff 4f       	sbci	r31, 0xFF	; 255
    1404:	11 82       	std	Z+1, r1	; 0x01
    1406:	10 82       	st	Z, r1

	ack->header.nwkFcf.security = frame->header.nwkFcf.security;
    1408:	d8 01       	movw	r26, r16
    140a:	1b 96       	adiw	r26, 0x0b	; 11
    140c:	8c 91       	ld	r24, X
    140e:	1b 97       	sbiw	r26, 0x0b	; 11
    1410:	86 95       	lsr	r24
    1412:	81 70       	andi	r24, 0x01	; 1
    1414:	f4 01       	movw	r30, r8
    1416:	93 85       	ldd	r25, Z+11	; 0x0b
    1418:	80 fb       	bst	r24, 0
    141a:	91 f9       	bld	r25, 1
    141c:	93 87       	std	Z+11, r25	; 0x0b
	ack->header.nwkDstAddr = frame->header.nwkSrcAddr;
    141e:	1d 96       	adiw	r26, 0x0d	; 13
    1420:	8d 91       	ld	r24, X+
    1422:	9c 91       	ld	r25, X
    1424:	1e 97       	sbiw	r26, 0x0e	; 14
    1426:	90 8b       	std	Z+16, r25	; 0x10
    1428:	87 87       	std	Z+15, r24	; 0x0f

	command = (NwkCommandAck_t *)ack->payload;
    142a:	ef 57       	subi	r30, 0x7F	; 127
    142c:	ff 4f       	sbci	r31, 0xFF	; 255
    142e:	01 90       	ld	r0, Z+
    1430:	f0 81       	ld	r31, Z
    1432:	e0 2d       	mov	r30, r0
	command->id = NWK_COMMAND_ACK;
    1434:	10 82       	st	Z, r1
	command->control = nwkRxAckControl;
    1436:	80 91 22 07 	lds	r24, 0x0722	; 0x800722 <nwkRxAckControl>
	command->seq = frame->header.nwkSeq;
    143a:	82 83       	std	Z+2, r24	; 0x02
    143c:	1c 96       	adiw	r26, 0x0c	; 12

	nwkTxFrame(ack);
    143e:	8c 91       	ld	r24, X
    1440:	81 83       	std	Z+1, r24	; 0x01

	if (ack) {
		nwkRxSendAck(frame);
	}

	frame->state = NWK_RX_STATE_FINISH;
    1442:	c4 01       	movw	r24, r8
    1444:	f6 d1       	rcall	.+1004   	; 0x1832 <nwkTxFrame>
		break;

#ifdef NWK_ENABLE_ROUTING
		case NWK_RX_STATE_ROUTE:
		{
			nwkRouteFrame(frame);
    1446:	d8 01       	movw	r26, r16
    1448:	bc 92       	st	X, r11
    144a:	05 c0       	rjmp	.+10     	; 0x1456 <nwkRxTaskHandler+0x454>
		}
		break;
    144c:	c8 01       	movw	r24, r16
#endif

		case NWK_RX_STATE_FINISH:
		{
			nwkFrameFree(frame);
    144e:	fd dc       	rcall	.-1542   	; 0xe4a <nwkRouteFrame>
    1450:	02 c0       	rjmp	.+4      	; 0x1456 <nwkRxTaskHandler+0x454>
    1452:	c8 01       	movw	r24, r16
*****************************************************************************/
void nwkRxTaskHandler(void)
{
	NwkFrame_t *frame = NULL;

	while (NULL != (frame = nwkFrameNext(frame))) {
    1454:	75 db       	rcall	.-2326   	; 0xb40 <nwkFrameFree>
    1456:	c8 01       	movw	r24, r16
    1458:	7d db       	rcall	.-2310   	; 0xb54 <nwkFrameNext>
    145a:	8c 01       	movw	r16, r24
    145c:	89 2b       	or	r24, r25
    145e:	09 f0       	breq	.+2      	; 0x1462 <nwkRxTaskHandler+0x460>
    1460:	0b ce       	rjmp	.-1002   	; 0x1078 <nwkRxTaskHandler+0x76>
    1462:	07 c0       	rjmp	.+14     	; 0x1472 <nwkRxTaskHandler+0x470>
			frame->state = NWK_RX_STATE_INDICATE;
		}
	} else
#endif /* NWK_ENABLE_MULTICAST */
	{
		if (NWK_BROADCAST_ADDR == header->macDstAddr && nwkIb.addr !=
    1464:	f8 01       	movw	r30, r16
    1466:	87 81       	ldd	r24, Z+7	; 0x07
    1468:	90 85       	ldd	r25, Z+8	; 0x08
    146a:	01 96       	adiw	r24, 0x01	; 1
    146c:	09 f0       	breq	.+2      	; 0x1470 <nwkRxTaskHandler+0x46e>
    146e:	fb ce       	rjmp	.-522    	; 0x1266 <nwkRxTaskHandler+0x264>
    1470:	ec ce       	rjmp	.-552    	; 0x124a <nwkRxTaskHandler+0x248>
			nwkFrameFree(frame);
		}
		break;
		}
	}
}
    1472:	2c 96       	adiw	r28, 0x0c	; 12
    1474:	0f b6       	in	r0, 0x3f	; 63
    1476:	f8 94       	cli
    1478:	de bf       	out	0x3e, r29	; 62
    147a:	0f be       	out	0x3f, r0	; 63
    147c:	cd bf       	out	0x3d, r28	; 61
    147e:	df 91       	pop	r29
    1480:	cf 91       	pop	r28
    1482:	1f 91       	pop	r17
    1484:	0f 91       	pop	r16
    1486:	ff 90       	pop	r15
    1488:	ef 90       	pop	r14
    148a:	df 90       	pop	r13
    148c:	cf 90       	pop	r12
    148e:	bf 90       	pop	r11
    1490:	af 90       	pop	r10
    1492:	9f 90       	pop	r9
    1494:	8f 90       	pop	r8
    1496:	7f 90       	pop	r7
    1498:	6f 90       	pop	r6
    149a:	5f 90       	pop	r5
    149c:	4f 90       	pop	r4
    149e:	3f 90       	pop	r3
    14a0:	2f 90       	pop	r2
    14a2:	08 95       	ret

000014a4 <nwkSecurityInit>:

/*************************************************************************//**
*****************************************************************************/
void NWK_SetSecurityKey(uint8_t *key)
{
	memcpy((uint8_t *)nwkIb.key, key, NWK_SECURITY_KEY_SIZE);
    14a4:	10 92 6a 07 	sts	0x076A, r1	; 0x80076a <nwkSecurityActiveFrames>
    14a8:	10 92 69 07 	sts	0x0769, r1	; 0x800769 <nwkSecurityActiveFrame+0x1>
    14ac:	10 92 68 07 	sts	0x0768, r1	; 0x800768 <nwkSecurityActiveFrame>
    14b0:	08 95       	ret

000014b2 <nwkSecurityProcess>:

/*************************************************************************//**
*****************************************************************************/
void nwkSecurityProcess(NwkFrame_t *frame, bool encrypt)
{
	if (encrypt) {
    14b2:	66 23       	and	r22, r22
    14b4:	21 f0       	breq	.+8      	; 0x14be <nwkSecurityProcess+0xc>
		frame->state = NWK_SECURITY_STATE_ENCRYPT_PENDING;
    14b6:	20 e3       	ldi	r18, 0x30	; 48
    14b8:	fc 01       	movw	r30, r24
    14ba:	20 83       	st	Z, r18
    14bc:	03 c0       	rjmp	.+6      	; 0x14c4 <nwkSecurityProcess+0x12>
	} else {
		frame->state = NWK_SECURITY_STATE_DECRYPT_PENDING;
    14be:	21 e3       	ldi	r18, 0x31	; 49
    14c0:	fc 01       	movw	r30, r24
    14c2:	20 83       	st	Z, r18
	}

	++nwkSecurityActiveFrames;
    14c4:	80 91 6a 07 	lds	r24, 0x076A	; 0x80076a <nwkSecurityActiveFrames>
    14c8:	8f 5f       	subi	r24, 0xFF	; 255
    14ca:	80 93 6a 07 	sts	0x076A, r24	; 0x80076a <nwkSecurityActiveFrames>
    14ce:	08 95       	ret

000014d0 <SYS_EncryptConf>:
}

/*************************************************************************//**
*****************************************************************************/
void SYS_EncryptConf(void)
{
    14d0:	cf 93       	push	r28
    14d2:	df 93       	push	r29
	uint8_t *vector = (uint8_t *)nwkSecurityVector;
	uint8_t *text = &nwkSecurityActiveFrame->payload[nwkSecurityOffset];
    14d4:	c0 91 68 07 	lds	r28, 0x0768	; 0x800768 <nwkSecurityActiveFrame>
    14d8:	d0 91 69 07 	lds	r29, 0x0769	; 0x800769 <nwkSecurityActiveFrame+0x1>
    14dc:	fe 01       	movw	r30, r28
    14de:	ef 57       	subi	r30, 0x7F	; 127
    14e0:	ff 4f       	sbci	r31, 0xFF	; 255
    14e2:	a0 81       	ld	r26, Z
    14e4:	b1 81       	ldd	r27, Z+1	; 0x01
    14e6:	70 91 66 07 	lds	r23, 0x0766	; 0x800766 <nwkSecurityOffset>
    14ea:	87 2f       	mov	r24, r23
    14ec:	90 e0       	ldi	r25, 0x00	; 0
	uint8_t block;

	block
		= (nwkSecuritySize <
    14ee:	50 91 67 07 	lds	r21, 0x0767	; 0x800767 <nwkSecuritySize>
    14f2:	65 2f       	mov	r22, r21
    14f4:	51 31       	cpi	r21, 0x11	; 17
    14f6:	08 f0       	brcs	.+2      	; 0x14fa <SYS_EncryptConf+0x2a>
    14f8:	60 e1       	ldi	r22, 0x10	; 16
			NWK_SECURITY_BLOCK_SIZE) ? nwkSecuritySize :
			NWK_SECURITY_BLOCK_SIZE;

	for (uint8_t i = 0; i < block; i++) {
    14fa:	66 23       	and	r22, r22
    14fc:	d1 f0       	breq	.+52     	; 0x1532 <SYS_EncryptConf+0x62>
		text[i] ^= vector[i];

		if (nwkSecurityEncrypt) {
    14fe:	40 91 65 07 	lds	r20, 0x0765	; 0x800765 <nwkSecurityEncrypt>
    1502:	e5 e5       	ldi	r30, 0x55	; 85
    1504:	f7 e0       	ldi	r31, 0x07	; 7
    1506:	a8 0f       	add	r26, r24
    1508:	b9 1f       	adc	r27, r25
    150a:	2f ef       	ldi	r18, 0xFF	; 255
    150c:	26 0f       	add	r18, r22
    150e:	30 e0       	ldi	r19, 0x00	; 0
    1510:	2a 5a       	subi	r18, 0xAA	; 170
    1512:	38 4f       	sbci	r19, 0xF8	; 248
		= (nwkSecuritySize <
			NWK_SECURITY_BLOCK_SIZE) ? nwkSecuritySize :
			NWK_SECURITY_BLOCK_SIZE;

	for (uint8_t i = 0; i < block; i++) {
		text[i] ^= vector[i];
    1514:	9c 91       	ld	r25, X
    1516:	80 81       	ld	r24, Z
    1518:	89 27       	eor	r24, r25
    151a:	8d 93       	st	X+, r24

		if (nwkSecurityEncrypt) {
    151c:	44 23       	and	r20, r20
    151e:	11 f0       	breq	.+4      	; 0x1524 <SYS_EncryptConf+0x54>
			vector[i] = text[i];
    1520:	80 83       	st	Z, r24
    1522:	03 c0       	rjmp	.+6      	; 0x152a <SYS_EncryptConf+0x5a>
		} else {
			vector[i] ^= text[i];
    1524:	90 81       	ld	r25, Z
    1526:	89 27       	eor	r24, r25
    1528:	80 83       	st	Z, r24
    152a:	31 96       	adiw	r30, 0x01	; 1
	block
		= (nwkSecuritySize <
			NWK_SECURITY_BLOCK_SIZE) ? nwkSecuritySize :
			NWK_SECURITY_BLOCK_SIZE;

	for (uint8_t i = 0; i < block; i++) {
    152c:	e2 17       	cp	r30, r18
    152e:	f3 07       	cpc	r31, r19
    1530:	89 f7       	brne	.-30     	; 0x1514 <SYS_EncryptConf+0x44>
		} else {
			vector[i] ^= text[i];
		}
	}

	nwkSecurityOffset += block;
    1532:	76 0f       	add	r23, r22
    1534:	70 93 66 07 	sts	0x0766, r23	; 0x800766 <nwkSecurityOffset>
	nwkSecuritySize -= block;
    1538:	56 1b       	sub	r21, r22
    153a:	50 93 67 07 	sts	0x0767, r21	; 0x800767 <nwkSecuritySize>

	if (nwkSecuritySize > 0) {
    153e:	55 23       	and	r21, r21
    1540:	19 f0       	breq	.+6      	; 0x1548 <SYS_EncryptConf+0x78>
		nwkSecurityActiveFrame->state = NWK_SECURITY_STATE_PROCESS;
    1542:	82 e3       	ldi	r24, 0x32	; 50
    1544:	88 83       	st	Y, r24
    1546:	02 c0       	rjmp	.+4      	; 0x154c <SYS_EncryptConf+0x7c>
	} else {
		nwkSecurityActiveFrame->state = NWK_SECURITY_STATE_CONFIRM;
    1548:	84 e3       	ldi	r24, 0x34	; 52
    154a:	88 83       	st	Y, r24
	}
}
    154c:	df 91       	pop	r29
    154e:	cf 91       	pop	r28
    1550:	08 95       	ret

00001552 <nwkSecurityTaskHandler>:

/*************************************************************************//**
*  @brief Security Module task handler
*****************************************************************************/
void nwkSecurityTaskHandler(void)
{
    1552:	0f 93       	push	r16
    1554:	1f 93       	push	r17
    1556:	cf 93       	push	r28
    1558:	df 93       	push	r29
	NwkFrame_t *frame = NULL;

	if (0 == nwkSecurityActiveFrames) {
    155a:	80 91 6a 07 	lds	r24, 0x076A	; 0x80076a <nwkSecurityActiveFrames>
    155e:	88 23       	and	r24, r24
    1560:	09 f4       	brne	.+2      	; 0x1564 <nwkSecurityTaskHandler+0x12>
    1562:	e1 c0       	rjmp	.+450    	; 0x1726 <nwkSecurityTaskHandler+0x1d4>
		return;
	}

	if (nwkSecurityActiveFrame) {
    1564:	e0 91 68 07 	lds	r30, 0x0768	; 0x800768 <nwkSecurityActiveFrame>
    1568:	f0 91 69 07 	lds	r31, 0x0769	; 0x800769 <nwkSecurityActiveFrame+0x1>
    156c:	30 97       	sbiw	r30, 0x00	; 0
    156e:	09 f4       	brne	.+2      	; 0x1572 <nwkSecurityTaskHandler+0x20>
    1570:	d4 c0       	rjmp	.+424    	; 0x171a <nwkSecurityTaskHandler+0x1c8>
		if (NWK_SECURITY_STATE_CONFIRM ==
				nwkSecurityActiveFrame->state) {
    1572:	80 81       	ld	r24, Z
	if (0 == nwkSecurityActiveFrames) {
		return;
	}

	if (nwkSecurityActiveFrame) {
		if (NWK_SECURITY_STATE_CONFIRM ==
    1574:	84 33       	cpi	r24, 0x34	; 52
    1576:	09 f0       	breq	.+2      	; 0x157a <nwkSecurityTaskHandler+0x28>
    1578:	55 c0       	rjmp	.+170    	; 0x1624 <nwkSecurityTaskHandler+0xd2>

/*************************************************************************//**
*****************************************************************************/
static bool nwkSecurityProcessMic(void)
{
	uint8_t *mic = &nwkSecurityActiveFrame->payload[nwkSecurityOffset];
    157a:	80 91 66 07 	lds	r24, 0x0766	; 0x800766 <nwkSecurityOffset>
    157e:	df 01       	movw	r26, r30
    1580:	af 57       	subi	r26, 0x7F	; 127
    1582:	bf 4f       	sbci	r27, 0xFF	; 255
    1584:	cd 91       	ld	r28, X+
    1586:	dc 91       	ld	r29, X
    1588:	c8 0f       	add	r28, r24
    158a:	d1 1d       	adc	r29, r1
	uint32_t vmic = nwkSecurityVector[0] ^ nwkSecurityVector[1] ^
    158c:	a5 e5       	ldi	r26, 0x55	; 85
    158e:	b7 e0       	ldi	r27, 0x07	; 7
			nwkSecurityVector[2] ^ nwkSecurityVector[3];
    1590:	0d 91       	ld	r16, X+
    1592:	1d 91       	ld	r17, X+
    1594:	2d 91       	ld	r18, X+
    1596:	3c 91       	ld	r19, X
    1598:	13 97       	sbiw	r26, 0x03	; 3
    159a:	14 96       	adiw	r26, 0x04	; 4
    159c:	4d 91       	ld	r20, X+
    159e:	5d 91       	ld	r21, X+
    15a0:	6d 91       	ld	r22, X+
    15a2:	7c 91       	ld	r23, X
    15a4:	17 97       	sbiw	r26, 0x07	; 7
    15a6:	04 27       	eor	r16, r20
    15a8:	15 27       	eor	r17, r21
    15aa:	26 27       	eor	r18, r22
    15ac:	37 27       	eor	r19, r23
    15ae:	18 96       	adiw	r26, 0x08	; 8
    15b0:	4d 91       	ld	r20, X+
    15b2:	5d 91       	ld	r21, X+
    15b4:	6d 91       	ld	r22, X+
    15b6:	7c 91       	ld	r23, X
    15b8:	1b 97       	sbiw	r26, 0x0b	; 11
    15ba:	04 27       	eor	r16, r20
    15bc:	15 27       	eor	r17, r21
    15be:	26 27       	eor	r18, r22
    15c0:	37 27       	eor	r19, r23
    15c2:	1c 96       	adiw	r26, 0x0c	; 12
    15c4:	4d 91       	ld	r20, X+
    15c6:	5d 91       	ld	r21, X+
    15c8:	6d 91       	ld	r22, X+
    15ca:	7c 91       	ld	r23, X
    15cc:	1f 97       	sbiw	r26, 0x0f	; 15
    15ce:	d9 01       	movw	r26, r18
    15d0:	c8 01       	movw	r24, r16
    15d2:	84 27       	eor	r24, r20
    15d4:	95 27       	eor	r25, r21
    15d6:	a6 27       	eor	r26, r22
    15d8:	b7 27       	eor	r27, r23
	uint32_t tmic;

	if (nwkSecurityEncrypt) {
    15da:	20 91 65 07 	lds	r18, 0x0765	; 0x800765 <nwkSecurityEncrypt>
    15de:	22 23       	and	r18, r18
    15e0:	51 f0       	breq	.+20     	; 0x15f6 <nwkSecurityTaskHandler+0xa4>
		memcpy(mic, (uint8_t *)&vmic, NWK_SECURITY_MIC_SIZE);
    15e2:	88 83       	st	Y, r24
    15e4:	99 83       	std	Y+1, r25	; 0x01
    15e6:	aa 83       	std	Y+2, r26	; 0x02
    15e8:	bb 83       	std	Y+3, r27	; 0x03
		nwkSecurityActiveFrame->size += NWK_SECURITY_MIC_SIZE;
    15ea:	81 81       	ldd	r24, Z+1	; 0x01
    15ec:	8c 5f       	subi	r24, 0xFC	; 252
    15ee:	81 83       	std	Z+1, r24	; 0x01
		if (NWK_SECURITY_STATE_CONFIRM ==
				nwkSecurityActiveFrame->state) {
			bool micStatus = nwkSecurityProcessMic();

			if (nwkSecurityEncrypt) {
				nwkTxEncryptConf(nwkSecurityActiveFrame);
    15f0:	cf 01       	movw	r24, r30
    15f2:	de d1       	rcall	.+956    	; 0x19b0 <nwkTxEncryptConf>
    15f4:	0d c0       	rjmp	.+26     	; 0x1610 <nwkSecurityTaskHandler+0xbe>
			} else {
				nwkRxDecryptConf(nwkSecurityActiveFrame,
    15f6:	61 e0       	ldi	r22, 0x01	; 1
    15f8:	08 81       	ld	r16, Y
    15fa:	19 81       	ldd	r17, Y+1	; 0x01
    15fc:	2a 81       	ldd	r18, Y+2	; 0x02
    15fe:	3b 81       	ldd	r19, Y+3	; 0x03
    1600:	08 17       	cp	r16, r24
    1602:	19 07       	cpc	r17, r25
    1604:	2a 07       	cpc	r18, r26
    1606:	3b 07       	cpc	r19, r27
    1608:	09 f0       	breq	.+2      	; 0x160c <nwkSecurityTaskHandler+0xba>
    160a:	60 e0       	ldi	r22, 0x00	; 0
    160c:	cf 01       	movw	r24, r30
    160e:	ef dc       	rcall	.-1570   	; 0xfee <nwkRxDecryptConf>
						micStatus);
			}

			nwkSecurityActiveFrame = NULL;
    1610:	10 92 69 07 	sts	0x0769, r1	; 0x800769 <nwkSecurityActiveFrame+0x1>
    1614:	10 92 68 07 	sts	0x0768, r1	; 0x800768 <nwkSecurityActiveFrame>
			--nwkSecurityActiveFrames;
    1618:	80 91 6a 07 	lds	r24, 0x076A	; 0x80076a <nwkSecurityActiveFrames>
    161c:	81 50       	subi	r24, 0x01	; 1
    161e:	80 93 6a 07 	sts	0x076A, r24	; 0x80076a <nwkSecurityActiveFrames>
    1622:	81 c0       	rjmp	.+258    	; 0x1726 <nwkSecurityTaskHandler+0x1d4>
		} else if (NWK_SECURITY_STATE_PROCESS ==
    1624:	82 33       	cpi	r24, 0x32	; 50
    1626:	09 f0       	breq	.+2      	; 0x162a <nwkSecurityTaskHandler+0xd8>
    1628:	7e c0       	rjmp	.+252    	; 0x1726 <nwkSecurityTaskHandler+0x1d4>
				nwkSecurityActiveFrame->state) {
			nwkSecurityActiveFrame->state = NWK_SECURITY_STATE_WAIT;
    162a:	83 e3       	ldi	r24, 0x33	; 51
    162c:	80 83       	st	Z, r24
			SYS_EncryptReq((uint32_t *)nwkSecurityVector,
    162e:	63 e8       	ldi	r22, 0x83	; 131
    1630:	79 e0       	ldi	r23, 0x09	; 9
    1632:	85 e5       	ldi	r24, 0x55	; 85
    1634:	97 e0       	ldi	r25, 0x07	; 7
    1636:	cc d3       	rcall	.+1944   	; 0x1dd0 <SYS_EncryptReq>
    1638:	76 c0       	rjmp	.+236    	; 0x1726 <nwkSecurityTaskHandler+0x1d4>

		return;
	}

	while (NULL != (frame = nwkFrameNext(frame))) {
		if (NWK_SECURITY_STATE_ENCRYPT_PENDING == frame->state ||
    163a:	dc 01       	movw	r26, r24
    163c:	2c 91       	ld	r18, X
    163e:	20 53       	subi	r18, 0x30	; 48
    1640:	22 30       	cpi	r18, 0x02	; 2
    1642:	08 f0       	brcs	.+2      	; 0x1646 <nwkSecurityTaskHandler+0xf4>
    1644:	6c c0       	rjmp	.+216    	; 0x171e <nwkSecurityTaskHandler+0x1cc>
				NWK_SECURITY_STATE_DECRYPT_PENDING ==
				frame->state) {
			nwkSecurityActiveFrame = frame;
    1646:	90 93 69 07 	sts	0x0769, r25	; 0x800769 <nwkSecurityActiveFrame+0x1>
    164a:	80 93 68 07 	sts	0x0768, r24	; 0x800768 <nwkSecurityActiveFrame>
*****************************************************************************/
static void nwkSecurityStart(void)
{
	NwkFrameHeader_t *header = &nwkSecurityActiveFrame->header;

	nwkSecurityVector[0] = header->nwkSeq;
    164e:	e5 e5       	ldi	r30, 0x55	; 85
    1650:	f7 e0       	ldi	r31, 0x07	; 7
    1652:	1c 96       	adiw	r26, 0x0c	; 12
    1654:	4c 91       	ld	r20, X
    1656:	1c 97       	sbiw	r26, 0x0c	; 12
    1658:	50 e0       	ldi	r21, 0x00	; 0
    165a:	60 e0       	ldi	r22, 0x00	; 0
    165c:	70 e0       	ldi	r23, 0x00	; 0
    165e:	40 83       	st	Z, r20
    1660:	51 83       	std	Z+1, r21	; 0x01
    1662:	62 83       	std	Z+2, r22	; 0x02
    1664:	73 83       	std	Z+3, r23	; 0x03
	nwkSecurityVector[1]
		= ((uint32_t)header->nwkDstAddr <<
    1666:	1f 96       	adiw	r26, 0x0f	; 15
    1668:	4d 91       	ld	r20, X+
    166a:	5c 91       	ld	r21, X
    166c:	50 97       	sbiw	r26, 0x10	; 16
    166e:	60 e0       	ldi	r22, 0x00	; 0
    1670:	70 e0       	ldi	r23, 0x00	; 0
    1672:	ba 01       	movw	r22, r20
    1674:	55 27       	eor	r21, r21
    1676:	44 27       	eor	r20, r20
			16) | header->nwkDstEndpoint;
    1678:	51 96       	adiw	r26, 0x11	; 17
    167a:	2c 91       	ld	r18, X
    167c:	51 97       	sbiw	r26, 0x11	; 17
    167e:	22 95       	swap	r18
    1680:	2f 70       	andi	r18, 0x0F	; 15
{
	NwkFrameHeader_t *header = &nwkSecurityActiveFrame->header;

	nwkSecurityVector[0] = header->nwkSeq;
	nwkSecurityVector[1]
		= ((uint32_t)header->nwkDstAddr <<
    1682:	42 2b       	or	r20, r18
    1684:	44 83       	std	Z+4, r20	; 0x04
    1686:	55 83       	std	Z+5, r21	; 0x05
    1688:	66 83       	std	Z+6, r22	; 0x06
    168a:	77 83       	std	Z+7, r23	; 0x07
			16) | header->nwkDstEndpoint;
	nwkSecurityVector[2]
		= ((uint32_t)header->nwkSrcAddr <<
    168c:	1d 96       	adiw	r26, 0x0d	; 13
    168e:	4d 91       	ld	r20, X+
    1690:	5c 91       	ld	r21, X
    1692:	1e 97       	sbiw	r26, 0x0e	; 14
    1694:	60 e0       	ldi	r22, 0x00	; 0
    1696:	70 e0       	ldi	r23, 0x00	; 0
    1698:	ba 01       	movw	r22, r20
    169a:	55 27       	eor	r21, r21
    169c:	44 27       	eor	r20, r20
			16) | header->nwkSrcEndpoint;
    169e:	51 96       	adiw	r26, 0x11	; 17
    16a0:	2c 91       	ld	r18, X
    16a2:	51 97       	sbiw	r26, 0x11	; 17
    16a4:	2f 70       	andi	r18, 0x0F	; 15
	nwkSecurityVector[0] = header->nwkSeq;
	nwkSecurityVector[1]
		= ((uint32_t)header->nwkDstAddr <<
			16) | header->nwkDstEndpoint;
	nwkSecurityVector[2]
		= ((uint32_t)header->nwkSrcAddr <<
    16a6:	42 2b       	or	r20, r18
    16a8:	40 87       	std	Z+8, r20	; 0x08
    16aa:	51 87       	std	Z+9, r21	; 0x09
    16ac:	62 87       	std	Z+10, r22	; 0x0a
    16ae:	73 87       	std	Z+11, r23	; 0x0b
			16) | header->nwkSrcEndpoint;
	nwkSecurityVector[3]
		= ((uint32_t)header->macDstPanId <<
    16b0:	15 96       	adiw	r26, 0x05	; 5
    16b2:	4d 91       	ld	r20, X+
    16b4:	5c 91       	ld	r21, X
    16b6:	16 97       	sbiw	r26, 0x06	; 6
    16b8:	60 e0       	ldi	r22, 0x00	; 0
    16ba:	70 e0       	ldi	r23, 0x00	; 0
    16bc:	ba 01       	movw	r22, r20
    16be:	55 27       	eor	r21, r21
    16c0:	44 27       	eor	r20, r20
    16c2:	1b 96       	adiw	r26, 0x0b	; 11
    16c4:	2c 91       	ld	r18, X
    16c6:	1b 97       	sbiw	r26, 0x0b	; 11
    16c8:	42 2b       	or	r20, r18
    16ca:	44 87       	std	Z+12, r20	; 0x0c
    16cc:	55 87       	std	Z+13, r21	; 0x0d
    16ce:	66 87       	std	Z+14, r22	; 0x0e
    16d0:	77 87       	std	Z+15, r23	; 0x0f
			16) | *(uint8_t *)&header->nwkFcf;

	if (NWK_SECURITY_STATE_DECRYPT_PENDING ==
			nwkSecurityActiveFrame->state) {
    16d2:	6c 91       	ld	r22, X
			16) | header->nwkSrcEndpoint;
	nwkSecurityVector[3]
		= ((uint32_t)header->macDstPanId <<
			16) | *(uint8_t *)&header->nwkFcf;

	if (NWK_SECURITY_STATE_DECRYPT_PENDING ==
    16d4:	61 33       	cpi	r22, 0x31	; 49
    16d6:	31 f4       	brne	.+12     	; 0x16e4 <nwkSecurityTaskHandler+0x192>
			nwkSecurityActiveFrame->state) {
		nwkSecurityActiveFrame->size -= NWK_SECURITY_MIC_SIZE;
    16d8:	11 96       	adiw	r26, 0x01	; 1
    16da:	2c 91       	ld	r18, X
    16dc:	11 97       	sbiw	r26, 0x01	; 1
    16de:	24 50       	subi	r18, 0x04	; 4
    16e0:	11 96       	adiw	r26, 0x01	; 1
    16e2:	2c 93       	st	X, r18
	}

	nwkSecuritySize = nwkFramePayloadSize(nwkSecurityActiveFrame);
    16e4:	fc 01       	movw	r30, r24
    16e6:	ef 57       	subi	r30, 0x7F	; 127
    16e8:	ff 4f       	sbci	r31, 0xFF	; 255
    16ea:	40 81       	ld	r20, Z
    16ec:	51 81       	ldd	r21, Z+1	; 0x01
    16ee:	9c 01       	movw	r18, r24
    16f0:	2e 5f       	subi	r18, 0xFE	; 254
    16f2:	3f 4f       	sbci	r19, 0xFF	; 255
    16f4:	42 1b       	sub	r20, r18
    16f6:	53 0b       	sbc	r21, r19
    16f8:	fc 01       	movw	r30, r24
    16fa:	21 81       	ldd	r18, Z+1	; 0x01
    16fc:	24 1b       	sub	r18, r20
    16fe:	20 93 67 07 	sts	0x0767, r18	; 0x800767 <nwkSecuritySize>
	nwkSecurityOffset = 0;
    1702:	10 92 66 07 	sts	0x0766, r1	; 0x800766 <nwkSecurityOffset>
	nwkSecurityEncrypt
		= (NWK_SECURITY_STATE_ENCRYPT_PENDING ==
    1706:	21 e0       	ldi	r18, 0x01	; 1
    1708:	60 33       	cpi	r22, 0x30	; 48
    170a:	09 f0       	breq	.+2      	; 0x170e <nwkSecurityTaskHandler+0x1bc>
    170c:	20 e0       	ldi	r18, 0x00	; 0
    170e:	20 93 65 07 	sts	0x0765, r18	; 0x800765 <nwkSecurityEncrypt>
			nwkSecurityActiveFrame->state);

	nwkSecurityActiveFrame->state = NWK_SECURITY_STATE_PROCESS;
    1712:	22 e3       	ldi	r18, 0x32	; 50
    1714:	dc 01       	movw	r26, r24
    1716:	2c 93       	st	X, r18
    1718:	06 c0       	rjmp	.+12     	; 0x1726 <nwkSecurityTaskHandler+0x1d4>
    171a:	80 e0       	ldi	r24, 0x00	; 0
		}

		return;
	}

	while (NULL != (frame = nwkFrameNext(frame))) {
    171c:	90 e0       	ldi	r25, 0x00	; 0
    171e:	1a da       	rcall	.-3020   	; 0xb54 <nwkFrameNext>
    1720:	00 97       	sbiw	r24, 0x00	; 0
    1722:	09 f0       	breq	.+2      	; 0x1726 <nwkSecurityTaskHandler+0x1d4>
    1724:	8a cf       	rjmp	.-236    	; 0x163a <nwkSecurityTaskHandler+0xe8>
			nwkSecurityActiveFrame = frame;
			nwkSecurityStart();
			return;
		}
	}
}
    1726:	df 91       	pop	r29
    1728:	cf 91       	pop	r28
    172a:	1f 91       	pop	r17
    172c:	0f 91       	pop	r16
    172e:	08 95       	ret

00001730 <nwkTxDelayTimerHandler>:
/*************************************************************************//**
*****************************************************************************/
void nwkTxConfirm(NwkFrame_t *frame, uint8_t status)
{
	frame->state = NWK_TX_STATE_CONFIRM;
	frame->tx.status = status;
    1730:	ef 92       	push	r14
    1732:	ff 92       	push	r15
    1734:	0f 93       	push	r16
    1736:	1f 93       	push	r17
    1738:	cf 93       	push	r28
    173a:	7c 01       	movw	r14, r24
    173c:	10 e0       	ldi	r17, 0x00	; 0
    173e:	80 e0       	ldi	r24, 0x00	; 0
    1740:	90 e0       	ldi	r25, 0x00	; 0
    1742:	01 e0       	ldi	r16, 0x01	; 1
    1744:	c3 e1       	ldi	r28, 0x13	; 19
    1746:	13 c0       	rjmp	.+38     	; 0x176e <nwkTxDelayTimerHandler+0x3e>
    1748:	fc 01       	movw	r30, r24
    174a:	20 81       	ld	r18, Z
    174c:	21 31       	cpi	r18, 0x11	; 17
    174e:	79 f4       	brne	.+30     	; 0x176e <nwkTxDelayTimerHandler+0x3e>
    1750:	ec 57       	subi	r30, 0x7C	; 124
    1752:	ff 4f       	sbci	r31, 0xFF	; 255
    1754:	20 81       	ld	r18, Z
    1756:	31 81       	ldd	r19, Z+1	; 0x01
    1758:	21 50       	subi	r18, 0x01	; 1
    175a:	31 09       	sbc	r19, r1
    175c:	31 83       	std	Z+1, r19	; 0x01
    175e:	20 83       	st	Z, r18
    1760:	23 2b       	or	r18, r19
    1762:	21 f4       	brne	.+8      	; 0x176c <nwkTxDelayTimerHandler+0x3c>
    1764:	fc 01       	movw	r30, r24
    1766:	c0 83       	st	Z, r28
    1768:	10 2f       	mov	r17, r16
    176a:	01 c0       	rjmp	.+2      	; 0x176e <nwkTxDelayTimerHandler+0x3e>
    176c:	10 2f       	mov	r17, r16
    176e:	f2 d9       	rcall	.-3100   	; 0xb54 <nwkFrameNext>
    1770:	00 97       	sbiw	r24, 0x00	; 0
    1772:	51 f7       	brne	.-44     	; 0x1748 <nwkTxDelayTimerHandler+0x18>
    1774:	11 23       	and	r17, r17
    1776:	11 f0       	breq	.+4      	; 0x177c <nwkTxDelayTimerHandler+0x4c>
    1778:	c7 01       	movw	r24, r14
    177a:	03 d4       	rcall	.+2054   	; 0x1f82 <SYS_TimerStart>
    177c:	cf 91       	pop	r28
    177e:	1f 91       	pop	r17
    1780:	0f 91       	pop	r16
    1782:	ff 90       	pop	r15
    1784:	ef 90       	pop	r14
    1786:	08 95       	ret

00001788 <nwkTxAckWaitTimerHandler>:
    1788:	ef 92       	push	r14
    178a:	ff 92       	push	r15
    178c:	0f 93       	push	r16
    178e:	1f 93       	push	r17
    1790:	cf 93       	push	r28
    1792:	df 93       	push	r29
    1794:	7c 01       	movw	r14, r24
    1796:	10 e0       	ldi	r17, 0x00	; 0
    1798:	80 e0       	ldi	r24, 0x00	; 0
    179a:	90 e0       	ldi	r25, 0x00	; 0
    179c:	01 e0       	ldi	r16, 0x01	; 1
    179e:	d7 e1       	ldi	r29, 0x17	; 23
    17a0:	c0 e1       	ldi	r28, 0x10	; 16
    17a2:	16 c0       	rjmp	.+44     	; 0x17d0 <nwkTxAckWaitTimerHandler+0x48>
    17a4:	fc 01       	movw	r30, r24
    17a6:	20 81       	ld	r18, Z
    17a8:	26 31       	cpi	r18, 0x16	; 22
    17aa:	91 f4       	brne	.+36     	; 0x17d0 <nwkTxAckWaitTimerHandler+0x48>
    17ac:	ec 57       	subi	r30, 0x7C	; 124
    17ae:	ff 4f       	sbci	r31, 0xFF	; 255
    17b0:	20 81       	ld	r18, Z
    17b2:	31 81       	ldd	r19, Z+1	; 0x01
    17b4:	21 50       	subi	r18, 0x01	; 1
    17b6:	31 09       	sbc	r19, r1
    17b8:	31 83       	std	Z+1, r19	; 0x01
    17ba:	20 83       	st	Z, r18
    17bc:	23 2b       	or	r18, r19
    17be:	39 f4       	brne	.+14     	; 0x17ce <nwkTxAckWaitTimerHandler+0x46>
    17c0:	fc 01       	movw	r30, r24
    17c2:	d0 83       	st	Z, r29
    17c4:	ed 57       	subi	r30, 0x7D	; 125
    17c6:	ff 4f       	sbci	r31, 0xFF	; 255
    17c8:	c0 83       	st	Z, r28
    17ca:	10 2f       	mov	r17, r16
    17cc:	01 c0       	rjmp	.+2      	; 0x17d0 <nwkTxAckWaitTimerHandler+0x48>
    17ce:	10 2f       	mov	r17, r16
    17d0:	c1 d9       	rcall	.-3198   	; 0xb54 <nwkFrameNext>
    17d2:	00 97       	sbiw	r24, 0x00	; 0
    17d4:	39 f7       	brne	.-50     	; 0x17a4 <nwkTxAckWaitTimerHandler+0x1c>
    17d6:	11 23       	and	r17, r17
    17d8:	11 f0       	breq	.+4      	; 0x17de <nwkTxAckWaitTimerHandler+0x56>
    17da:	c7 01       	movw	r24, r14
    17dc:	d2 d3       	rcall	.+1956   	; 0x1f82 <SYS_TimerStart>
    17de:	df 91       	pop	r29
    17e0:	cf 91       	pop	r28
    17e2:	1f 91       	pop	r17
    17e4:	0f 91       	pop	r16
    17e6:	ff 90       	pop	r15
    17e8:	ef 90       	pop	r14
    17ea:	08 95       	ret

000017ec <nwkTxInit>:
    17ec:	10 92 86 07 	sts	0x0786, r1	; 0x800786 <nwkTxPhyActiveFrame+0x1>
    17f0:	10 92 85 07 	sts	0x0785, r1	; 0x800785 <nwkTxPhyActiveFrame>
    17f4:	e8 e7       	ldi	r30, 0x78	; 120
    17f6:	f7 e0       	ldi	r31, 0x07	; 7
    17f8:	82 e3       	ldi	r24, 0x32	; 50
    17fa:	90 e0       	ldi	r25, 0x00	; 0
    17fc:	a0 e0       	ldi	r26, 0x00	; 0
    17fe:	b0 e0       	ldi	r27, 0x00	; 0
    1800:	86 83       	std	Z+6, r24	; 0x06
    1802:	97 83       	std	Z+7, r25	; 0x07
    1804:	a0 87       	std	Z+8, r26	; 0x08
    1806:	b1 87       	std	Z+9, r27	; 0x09
    1808:	12 86       	std	Z+10, r1	; 0x0a
    180a:	84 ec       	ldi	r24, 0xC4	; 196
    180c:	9b e0       	ldi	r25, 0x0B	; 11
    180e:	94 87       	std	Z+12, r25	; 0x0c
    1810:	83 87       	std	Z+11, r24	; 0x0b
    1812:	eb e6       	ldi	r30, 0x6B	; 107
    1814:	f7 e0       	ldi	r31, 0x07	; 7
    1816:	8a e0       	ldi	r24, 0x0A	; 10
    1818:	90 e0       	ldi	r25, 0x00	; 0
    181a:	a0 e0       	ldi	r26, 0x00	; 0
    181c:	b0 e0       	ldi	r27, 0x00	; 0
    181e:	86 83       	std	Z+6, r24	; 0x06
    1820:	97 83       	std	Z+7, r25	; 0x07
    1822:	a0 87       	std	Z+8, r26	; 0x08
    1824:	b1 87       	std	Z+9, r27	; 0x09
    1826:	12 86       	std	Z+10, r1	; 0x0a
    1828:	88 e9       	ldi	r24, 0x98	; 152
    182a:	9b e0       	ldi	r25, 0x0B	; 11
    182c:	94 87       	std	Z+12, r25	; 0x0c
    182e:	83 87       	std	Z+11, r24	; 0x0b
    1830:	08 95       	ret

00001832 <nwkTxFrame>:
    1832:	cf 93       	push	r28
    1834:	df 93       	push	r29
    1836:	ec 01       	movw	r28, r24
    1838:	fc 01       	movw	r30, r24
    183a:	ea 57       	subi	r30, 0x7A	; 122
    183c:	ff 4f       	sbci	r31, 0xFF	; 255
    183e:	80 81       	ld	r24, Z
    1840:	81 ff       	sbrs	r24, 1
    1842:	03 c0       	rjmp	.+6      	; 0x184a <nwkTxFrame+0x18>
    1844:	92 e1       	ldi	r25, 0x12	; 18
    1846:	98 83       	st	Y, r25
    1848:	08 c0       	rjmp	.+16     	; 0x185a <nwkTxFrame+0x28>
    184a:	9b 85       	ldd	r25, Y+11	; 0x0b
    184c:	91 ff       	sbrs	r25, 1
    184e:	03 c0       	rjmp	.+6      	; 0x1856 <nwkTxFrame+0x24>
    1850:	90 e1       	ldi	r25, 0x10	; 16
    1852:	98 83       	st	Y, r25
    1854:	02 c0       	rjmp	.+4      	; 0x185a <nwkTxFrame+0x28>
    1856:	92 e1       	ldi	r25, 0x12	; 18
    1858:	98 83       	st	Y, r25
    185a:	fe 01       	movw	r30, r28
    185c:	ed 57       	subi	r30, 0x7D	; 125
    185e:	ff 4f       	sbci	r31, 0xFF	; 255
    1860:	10 82       	st	Z, r1
    1862:	80 ff       	sbrs	r24, 0
    1864:	05 c0       	rjmp	.+10     	; 0x1870 <nwkTxFrame+0x3e>
    1866:	2f ef       	ldi	r18, 0xFF	; 255
    1868:	3f ef       	ldi	r19, 0xFF	; 255
    186a:	3e 83       	std	Y+6, r19	; 0x06
    186c:	2d 83       	std	Y+5, r18	; 0x05
    186e:	06 c0       	rjmp	.+12     	; 0x187c <nwkTxFrame+0x4a>
    1870:	20 91 5f 09 	lds	r18, 0x095F	; 0x80095f <nwkIb+0x2>
    1874:	30 91 60 09 	lds	r19, 0x0960	; 0x800960 <nwkIb+0x3>
    1878:	3e 83       	std	Y+6, r19	; 0x06
    187a:	2d 83       	std	Y+5, r18	; 0x05
    187c:	85 70       	andi	r24, 0x05	; 5
    187e:	19 f4       	brne	.+6      	; 0x1886 <nwkTxFrame+0x54>
    1880:	ce 01       	movw	r24, r28
    1882:	c4 da       	rcall	.-2680   	; 0xe0c <nwkRoutePrepareTx>
    1884:	04 c0       	rjmp	.+8      	; 0x188e <nwkTxFrame+0x5c>
    1886:	8f 85       	ldd	r24, Y+15	; 0x0f
    1888:	98 89       	ldd	r25, Y+16	; 0x10
    188a:	98 87       	std	Y+8, r25	; 0x08
    188c:	8f 83       	std	Y+7, r24	; 0x07
    188e:	ed e5       	ldi	r30, 0x5D	; 93
    1890:	f9 e0       	ldi	r31, 0x09	; 9
    1892:	80 81       	ld	r24, Z
    1894:	91 81       	ldd	r25, Z+1	; 0x01
    1896:	9a 87       	std	Y+10, r25	; 0x0a
    1898:	89 87       	std	Y+9, r24	; 0x09
    189a:	85 81       	ldd	r24, Z+5	; 0x05
    189c:	8f 5f       	subi	r24, 0xFF	; 255
    189e:	85 83       	std	Z+5, r24	; 0x05
    18a0:	8c 83       	std	Y+4, r24	; 0x04
    18a2:	8f 81       	ldd	r24, Y+7	; 0x07
    18a4:	98 85       	ldd	r25, Y+8	; 0x08
    18a6:	01 96       	adiw	r24, 0x01	; 1
    18a8:	71 f4       	brne	.+28     	; 0x18c6 <nwkTxFrame+0x94>
    18aa:	81 e4       	ldi	r24, 0x41	; 65
    18ac:	98 e8       	ldi	r25, 0x88	; 136
    18ae:	9b 83       	std	Y+3, r25	; 0x03
    18b0:	8a 83       	std	Y+2, r24	; 0x02
    18b2:	0e 94 b4 16 	call	0x2d68	; 0x2d68 <rand>
    18b6:	cc 57       	subi	r28, 0x7C	; 124
    18b8:	df 4f       	sbci	r29, 0xFF	; 255
    18ba:	87 70       	andi	r24, 0x07	; 7
    18bc:	99 27       	eor	r25, r25
    18be:	01 96       	adiw	r24, 0x01	; 1
    18c0:	99 83       	std	Y+1, r25	; 0x01
    18c2:	88 83       	st	Y, r24
    18c4:	08 c0       	rjmp	.+16     	; 0x18d6 <nwkTxFrame+0xa4>
    18c6:	81 e6       	ldi	r24, 0x61	; 97
    18c8:	98 e8       	ldi	r25, 0x88	; 136
    18ca:	9b 83       	std	Y+3, r25	; 0x03
    18cc:	8a 83       	std	Y+2, r24	; 0x02
    18ce:	cc 57       	subi	r28, 0x7C	; 124
    18d0:	df 4f       	sbci	r29, 0xFF	; 255
    18d2:	19 82       	std	Y+1, r1	; 0x01
    18d4:	18 82       	st	Y, r1
    18d6:	df 91       	pop	r29
    18d8:	cf 91       	pop	r28
    18da:	08 95       	ret

000018dc <nwkTxBroadcastFrame>:
    18dc:	0f 93       	push	r16
    18de:	1f 93       	push	r17
    18e0:	cf 93       	push	r28
    18e2:	df 93       	push	r29
    18e4:	8c 01       	movw	r16, r24
    18e6:	f6 d8       	rcall	.-3604   	; 0xad4 <nwkFrameAlloc>
    18e8:	ec 01       	movw	r28, r24
    18ea:	89 2b       	or	r24, r25
    18ec:	b9 f1       	breq	.+110    	; 0x195c <nwkTxBroadcastFrame+0x80>
    18ee:	82 e1       	ldi	r24, 0x12	; 18
    18f0:	88 83       	st	Y, r24
    18f2:	f8 01       	movw	r30, r16
    18f4:	81 81       	ldd	r24, Z+1	; 0x01
    18f6:	89 83       	std	Y+1, r24	; 0x01
    18f8:	fe 01       	movw	r30, r28
    18fa:	ed 57       	subi	r30, 0x7D	; 125
    18fc:	ff 4f       	sbci	r31, 0xFF	; 255
    18fe:	10 82       	st	Z, r1
    1900:	0e 94 b4 16 	call	0x2d68	; 0x2d68 <rand>
    1904:	fe 01       	movw	r30, r28
    1906:	ec 57       	subi	r30, 0x7C	; 124
    1908:	ff 4f       	sbci	r31, 0xFF	; 255
    190a:	87 70       	andi	r24, 0x07	; 7
    190c:	99 27       	eor	r25, r25
    190e:	01 96       	adiw	r24, 0x01	; 1
    1910:	91 83       	std	Z+1, r25	; 0x01
    1912:	80 83       	st	Z, r24
    1914:	33 96       	adiw	r30, 0x03	; 3
    1916:	11 82       	std	Z+1, r1	; 0x01
    1918:	10 82       	st	Z, r1
    191a:	f8 01       	movw	r30, r16
    191c:	41 81       	ldd	r20, Z+1	; 0x01
    191e:	50 e0       	ldi	r21, 0x00	; 0
    1920:	b8 01       	movw	r22, r16
    1922:	6e 5f       	subi	r22, 0xFE	; 254
    1924:	7f 4f       	sbci	r23, 0xFF	; 255
    1926:	ce 01       	movw	r24, r28
    1928:	02 96       	adiw	r24, 0x02	; 2
    192a:	0e 94 c2 16 	call	0x2d84	; 0x2d84 <memcpy>
    192e:	81 e4       	ldi	r24, 0x41	; 65
    1930:	98 e8       	ldi	r25, 0x88	; 136
    1932:	9b 83       	std	Y+3, r25	; 0x03
    1934:	8a 83       	std	Y+2, r24	; 0x02
    1936:	8f ef       	ldi	r24, 0xFF	; 255
    1938:	9f ef       	ldi	r25, 0xFF	; 255
    193a:	98 87       	std	Y+8, r25	; 0x08
    193c:	8f 83       	std	Y+7, r24	; 0x07
    193e:	f8 01       	movw	r30, r16
    1940:	85 81       	ldd	r24, Z+5	; 0x05
    1942:	96 81       	ldd	r25, Z+6	; 0x06
    1944:	9e 83       	std	Y+6, r25	; 0x06
    1946:	8d 83       	std	Y+5, r24	; 0x05
    1948:	ed e5       	ldi	r30, 0x5D	; 93
    194a:	f9 e0       	ldi	r31, 0x09	; 9
    194c:	80 81       	ld	r24, Z
    194e:	91 81       	ldd	r25, Z+1	; 0x01
    1950:	9a 87       	std	Y+10, r25	; 0x0a
    1952:	89 87       	std	Y+9, r24	; 0x09
    1954:	85 81       	ldd	r24, Z+5	; 0x05
    1956:	8f 5f       	subi	r24, 0xFF	; 255
    1958:	85 83       	std	Z+5, r24	; 0x05
    195a:	8c 83       	std	Y+4, r24	; 0x04
    195c:	df 91       	pop	r29
    195e:	cf 91       	pop	r28
    1960:	1f 91       	pop	r17
    1962:	0f 91       	pop	r16
    1964:	08 95       	ret

00001966 <nwkTxAckReceived>:
    1966:	cf 93       	push	r28
    1968:	df 93       	push	r29
    196a:	fc 01       	movw	r30, r24
    196c:	21 85       	ldd	r18, Z+9	; 0x09
    196e:	23 30       	cpi	r18, 0x03	; 3
    1970:	d9 f4       	brne	.+54     	; 0x19a8 <nwkTxAckReceived+0x42>
    1972:	10 c0       	rjmp	.+32     	; 0x1994 <nwkTxAckReceived+0x2e>
    1974:	fc 01       	movw	r30, r24
    1976:	20 81       	ld	r18, Z
    1978:	26 31       	cpi	r18, 0x16	; 22
    197a:	89 f4       	brne	.+34     	; 0x199e <nwkTxAckReceived+0x38>
    197c:	34 85       	ldd	r19, Z+12	; 0x0c
    197e:	29 81       	ldd	r18, Y+1	; 0x01
    1980:	32 13       	cpse	r19, r18
    1982:	0d c0       	rjmp	.+26     	; 0x199e <nwkTxAckReceived+0x38>
    1984:	27 e1       	ldi	r18, 0x17	; 23
    1986:	20 83       	st	Z, r18
    1988:	2a 81       	ldd	r18, Y+2	; 0x02
    198a:	ea 57       	subi	r30, 0x7A	; 122
    198c:	ff 4f       	sbci	r31, 0xFF	; 255
    198e:	20 83       	st	Z, r18
    1990:	81 e0       	ldi	r24, 0x01	; 1
    1992:	0b c0       	rjmp	.+22     	; 0x19aa <nwkTxAckReceived+0x44>
    1994:	fc 01       	movw	r30, r24
    1996:	c7 81       	ldd	r28, Z+7	; 0x07
    1998:	d0 85       	ldd	r29, Z+8	; 0x08
    199a:	80 e0       	ldi	r24, 0x00	; 0
    199c:	90 e0       	ldi	r25, 0x00	; 0
    199e:	da d8       	rcall	.-3660   	; 0xb54 <nwkFrameNext>
    19a0:	00 97       	sbiw	r24, 0x00	; 0
    19a2:	41 f7       	brne	.-48     	; 0x1974 <nwkTxAckReceived+0xe>
    19a4:	80 e0       	ldi	r24, 0x00	; 0
    19a6:	01 c0       	rjmp	.+2      	; 0x19aa <nwkTxAckReceived+0x44>
    19a8:	80 e0       	ldi	r24, 0x00	; 0
    19aa:	df 91       	pop	r29
    19ac:	cf 91       	pop	r28
    19ae:	08 95       	ret

000019b0 <nwkTxEncryptConf>:

/*************************************************************************//**
*****************************************************************************/
void nwkTxEncryptConf(NwkFrame_t *frame)
{
	frame->state = NWK_TX_STATE_DELAY;
    19b0:	22 e1       	ldi	r18, 0x12	; 18
    19b2:	fc 01       	movw	r30, r24
    19b4:	20 83       	st	Z, r18
    19b6:	08 95       	ret

000019b8 <PHY_DataConf>:

/*************************************************************************//**
*****************************************************************************/
void PHY_DataConf(uint8_t status)
{
	nwkTxPhyActiveFrame->tx.status = nwkTxConvertPhyStatus(status);
    19b8:	e0 91 85 07 	lds	r30, 0x0785	; 0x800785 <nwkTxPhyActiveFrame>
    19bc:	f0 91 86 07 	lds	r31, 0x0786	; 0x800786 <nwkTxPhyActiveFrame+0x1>

/*************************************************************************//**
*****************************************************************************/
static uint8_t nwkTxConvertPhyStatus(uint8_t status)
{
	switch (status) {
    19c0:	81 30       	cpi	r24, 0x01	; 1
    19c2:	21 f0       	breq	.+8      	; 0x19cc <PHY_DataConf+0x14>
    19c4:	48 f0       	brcs	.+18     	; 0x19d8 <PHY_DataConf+0x20>
    19c6:	82 30       	cpi	r24, 0x02	; 2
    19c8:	19 f0       	breq	.+6      	; 0x19d0 <PHY_DataConf+0x18>
    19ca:	04 c0       	rjmp	.+8      	; 0x19d4 <PHY_DataConf+0x1c>
	case PHY_STATUS_SUCCESS:
		return NWK_SUCCESS_STATUS;

	case PHY_STATUS_CHANNEL_ACCESS_FAILURE:
		return NWK_PHY_CHANNEL_ACCESS_FAILURE_STATUS;
    19cc:	80 e2       	ldi	r24, 0x20	; 32
    19ce:	05 c0       	rjmp	.+10     	; 0x19da <PHY_DataConf+0x22>

	case PHY_STATUS_NO_ACK:
		return NWK_PHY_NO_ACK_STATUS;
    19d0:	81 e2       	ldi	r24, 0x21	; 33
    19d2:	03 c0       	rjmp	.+6      	; 0x19da <PHY_DataConf+0x22>

	default:
		return NWK_ERROR_STATUS;
    19d4:	81 e0       	ldi	r24, 0x01	; 1
    19d6:	01 c0       	rjmp	.+2      	; 0x19da <PHY_DataConf+0x22>
*****************************************************************************/
static uint8_t nwkTxConvertPhyStatus(uint8_t status)
{
	switch (status) {
	case PHY_STATUS_SUCCESS:
		return NWK_SUCCESS_STATUS;
    19d8:	80 e0       	ldi	r24, 0x00	; 0

/*************************************************************************//**
*****************************************************************************/
void PHY_DataConf(uint8_t status)
{
	nwkTxPhyActiveFrame->tx.status = nwkTxConvertPhyStatus(status);
    19da:	df 01       	movw	r26, r30
    19dc:	ad 57       	subi	r26, 0x7D	; 125
    19de:	bf 4f       	sbci	r27, 0xFF	; 255
    19e0:	8c 93       	st	X, r24
	nwkTxPhyActiveFrame->state = NWK_TX_STATE_SENT;
    19e2:	85 e1       	ldi	r24, 0x15	; 21
    19e4:	80 83       	st	Z, r24
	nwkTxPhyActiveFrame = NULL;
    19e6:	10 92 86 07 	sts	0x0786, r1	; 0x800786 <nwkTxPhyActiveFrame+0x1>
    19ea:	10 92 85 07 	sts	0x0785, r1	; 0x800785 <nwkTxPhyActiveFrame>
	nwkIb.lock--;
    19ee:	ed e5       	ldi	r30, 0x5D	; 93
    19f0:	f9 e0       	ldi	r31, 0x09	; 9
    19f2:	86 a9       	ldd	r24, Z+54	; 0x36
    19f4:	97 a9       	ldd	r25, Z+55	; 0x37
    19f6:	01 97       	sbiw	r24, 0x01	; 1
    19f8:	97 ab       	std	Z+55, r25	; 0x37
    19fa:	86 ab       	std	Z+54, r24	; 0x36
    19fc:	08 95       	ret

000019fe <nwkTxTaskHandler>:

/*************************************************************************//**
*  @brief Tx Module task handler
*****************************************************************************/
void nwkTxTaskHandler(void)
{
    19fe:	9f 92       	push	r9
    1a00:	af 92       	push	r10
    1a02:	bf 92       	push	r11
    1a04:	cf 92       	push	r12
    1a06:	df 92       	push	r13
    1a08:	ef 92       	push	r14
    1a0a:	ff 92       	push	r15
    1a0c:	0f 93       	push	r16
    1a0e:	1f 93       	push	r17
    1a10:	cf 93       	push	r28
    1a12:	df 93       	push	r29
	NwkFrame_t *frame = NULL;
    1a14:	c0 e0       	ldi	r28, 0x00	; 0
    1a16:	d0 e0       	ldi	r29, 0x00	; 0

		case NWK_TX_STATE_SEND:
		{
			if (NULL == nwkTxPhyActiveFrame) {
				nwkTxPhyActiveFrame = frame;
				frame->state = NWK_TX_STATE_WAIT_CONF;
    1a18:	0f 2e       	mov	r0, r31
    1a1a:	f4 e1       	ldi	r31, 0x14	; 20
    1a1c:	af 2e       	mov	r10, r31
    1a1e:	f0 2d       	mov	r31, r0
				PHY_DataReq(&(frame->size));
				nwkIb.lock++;
    1a20:	0d e5       	ldi	r16, 0x5D	; 93
    1a22:	19 e0       	ldi	r17, 0x09	; 9
					SYS_TimerStart(&nwkTxAckWaitTimer);
				} else {
					frame->state = NWK_TX_STATE_CONFIRM;
				}
			} else {
				frame->state = NWK_TX_STATE_CONFIRM;
    1a24:	0f 2e       	mov	r0, r31
    1a26:	f7 e1       	ldi	r31, 0x17	; 23
    1a28:	df 2e       	mov	r13, r31
    1a2a:	f0 2d       	mov	r31, r0
		{
			if (NWK_SUCCESS_STATUS == frame->tx.status) {
				if (frame->header.nwkSrcAddr == nwkIb.addr &&
						frame->header.nwkFcf.
						ackRequest) {
					frame->state = NWK_TX_STATE_WAIT_ACK;
    1a2c:	0f 2e       	mov	r0, r31
    1a2e:	f6 e1       	ldi	r31, 0x16	; 22
    1a30:	9f 2e       	mov	r9, r31
    1a32:	f0 2d       	mov	r31, r0
					frame->tx.timeout = NWK_ACK_WAIT_TIME /
    1a34:	0f 2e       	mov	r0, r31
    1a36:	f5 e1       	ldi	r31, 0x15	; 21
    1a38:	ef 2e       	mov	r14, r31
    1a3a:	f1 2c       	mov	r15, r1
    1a3c:	f0 2d       	mov	r31, r0
		{
			if (frame->tx.timeout > 0) {
				frame->state = NWK_TX_STATE_WAIT_DELAY;
				SYS_TimerStart(&nwkTxDelayTimer);
			} else {
				frame->state = NWK_TX_STATE_SEND;
    1a3e:	0f 2e       	mov	r0, r31
    1a40:	f3 e1       	ldi	r31, 0x13	; 19
    1a42:	cf 2e       	mov	r12, r31
    1a44:	f0 2d       	mov	r31, r0
#endif

		case NWK_TX_STATE_DELAY:
		{
			if (frame->tx.timeout > 0) {
				frame->state = NWK_TX_STATE_WAIT_DELAY;
    1a46:	0f 2e       	mov	r0, r31
    1a48:	f1 e1       	ldi	r31, 0x11	; 17
    1a4a:	bf 2e       	mov	r11, r31
    1a4c:	f0 2d       	mov	r31, r0
*****************************************************************************/
void nwkTxTaskHandler(void)
{
	NwkFrame_t *frame = NULL;

	while (NULL != (frame = nwkFrameNext(frame))) {
    1a4e:	65 c0       	rjmp	.+202    	; 0x1b1a <nwkTxTaskHandler+0x11c>
		switch (frame->state) {
    1a50:	88 81       	ld	r24, Y
    1a52:	83 31       	cpi	r24, 0x13	; 19
    1a54:	f1 f0       	breq	.+60     	; 0x1a92 <nwkTxTaskHandler+0x94>
    1a56:	28 f4       	brcc	.+10     	; 0x1a62 <nwkTxTaskHandler+0x64>
    1a58:	80 31       	cpi	r24, 0x10	; 16
    1a5a:	49 f0       	breq	.+18     	; 0x1a6e <nwkTxTaskHandler+0x70>
    1a5c:	82 31       	cpi	r24, 0x12	; 18
    1a5e:	59 f0       	breq	.+22     	; 0x1a76 <nwkTxTaskHandler+0x78>
    1a60:	5c c0       	rjmp	.+184    	; 0x1b1a <nwkTxTaskHandler+0x11c>
    1a62:	85 31       	cpi	r24, 0x15	; 21
    1a64:	61 f1       	breq	.+88     	; 0x1abe <nwkTxTaskHandler+0xc0>
    1a66:	87 31       	cpi	r24, 0x17	; 23
    1a68:	09 f4       	brne	.+2      	; 0x1a6c <nwkTxTaskHandler+0x6e>
    1a6a:	48 c0       	rjmp	.+144    	; 0x1afc <nwkTxTaskHandler+0xfe>
    1a6c:	56 c0       	rjmp	.+172    	; 0x1b1a <nwkTxTaskHandler+0x11c>
#ifdef NWK_ENABLE_SECURITY
		case NWK_TX_STATE_ENCRYPT:
		{
			nwkSecurityProcess(frame, true);
    1a6e:	61 e0       	ldi	r22, 0x01	; 1
    1a70:	ce 01       	movw	r24, r28
    1a72:	1f dd       	rcall	.-1474   	; 0x14b2 <nwkSecurityProcess>
		}
		break;
    1a74:	52 c0       	rjmp	.+164    	; 0x1b1a <nwkTxTaskHandler+0x11c>
#endif

		case NWK_TX_STATE_DELAY:
		{
			if (frame->tx.timeout > 0) {
    1a76:	fe 01       	movw	r30, r28
    1a78:	ec 57       	subi	r30, 0x7C	; 124
    1a7a:	ff 4f       	sbci	r31, 0xFF	; 255
    1a7c:	80 81       	ld	r24, Z
    1a7e:	91 81       	ldd	r25, Z+1	; 0x01
    1a80:	89 2b       	or	r24, r25
    1a82:	29 f0       	breq	.+10     	; 0x1a8e <nwkTxTaskHandler+0x90>
				frame->state = NWK_TX_STATE_WAIT_DELAY;
    1a84:	b8 82       	st	Y, r11
				SYS_TimerStart(&nwkTxDelayTimer);
    1a86:	8b e6       	ldi	r24, 0x6B	; 107
    1a88:	97 e0       	ldi	r25, 0x07	; 7
    1a8a:	7b d2       	rcall	.+1270   	; 0x1f82 <SYS_TimerStart>
    1a8c:	46 c0       	rjmp	.+140    	; 0x1b1a <nwkTxTaskHandler+0x11c>
			} else {
				frame->state = NWK_TX_STATE_SEND;
    1a8e:	c8 82       	st	Y, r12
    1a90:	44 c0       	rjmp	.+136    	; 0x1b1a <nwkTxTaskHandler+0x11c>
		}
		break;

		case NWK_TX_STATE_SEND:
		{
			if (NULL == nwkTxPhyActiveFrame) {
    1a92:	80 91 85 07 	lds	r24, 0x0785	; 0x800785 <nwkTxPhyActiveFrame>
    1a96:	90 91 86 07 	lds	r25, 0x0786	; 0x800786 <nwkTxPhyActiveFrame+0x1>
    1a9a:	89 2b       	or	r24, r25
    1a9c:	09 f0       	breq	.+2      	; 0x1aa0 <nwkTxTaskHandler+0xa2>
    1a9e:	3d c0       	rjmp	.+122    	; 0x1b1a <nwkTxTaskHandler+0x11c>
				nwkTxPhyActiveFrame = frame;
    1aa0:	d0 93 86 07 	sts	0x0786, r29	; 0x800786 <nwkTxPhyActiveFrame+0x1>
    1aa4:	c0 93 85 07 	sts	0x0785, r28	; 0x800785 <nwkTxPhyActiveFrame>
				frame->state = NWK_TX_STATE_WAIT_CONF;
    1aa8:	fe 01       	movw	r30, r28
    1aaa:	a1 92       	st	Z+, r10
				PHY_DataReq(&(frame->size));
    1aac:	cf 01       	movw	r24, r30
    1aae:	d4 d0       	rcall	.+424    	; 0x1c58 <PHY_DataReq>
				nwkIb.lock++;
    1ab0:	f8 01       	movw	r30, r16
    1ab2:	86 a9       	ldd	r24, Z+54	; 0x36
    1ab4:	97 a9       	ldd	r25, Z+55	; 0x37
    1ab6:	01 96       	adiw	r24, 0x01	; 1
    1ab8:	97 ab       	std	Z+55, r25	; 0x37
    1aba:	86 ab       	std	Z+54, r24	; 0x36
    1abc:	2e c0       	rjmp	.+92     	; 0x1b1a <nwkTxTaskHandler+0x11c>
		case NWK_TX_STATE_WAIT_CONF:
			break;

		case NWK_TX_STATE_SENT:
		{
			if (NWK_SUCCESS_STATUS == frame->tx.status) {
    1abe:	fe 01       	movw	r30, r28
    1ac0:	ed 57       	subi	r30, 0x7D	; 125
    1ac2:	ff 4f       	sbci	r31, 0xFF	; 255
    1ac4:	80 81       	ld	r24, Z
    1ac6:	81 11       	cpse	r24, r1
    1ac8:	17 c0       	rjmp	.+46     	; 0x1af8 <nwkTxTaskHandler+0xfa>
				if (frame->header.nwkSrcAddr == nwkIb.addr &&
    1aca:	2d 85       	ldd	r18, Y+13	; 0x0d
    1acc:	3e 85       	ldd	r19, Y+14	; 0x0e
    1ace:	f8 01       	movw	r30, r16
    1ad0:	80 81       	ld	r24, Z
    1ad2:	91 81       	ldd	r25, Z+1	; 0x01
    1ad4:	28 17       	cp	r18, r24
    1ad6:	39 07       	cpc	r19, r25
    1ad8:	69 f4       	brne	.+26     	; 0x1af4 <nwkTxTaskHandler+0xf6>
    1ada:	8b 85       	ldd	r24, Y+11	; 0x0b
    1adc:	80 ff       	sbrs	r24, 0
    1ade:	0a c0       	rjmp	.+20     	; 0x1af4 <nwkTxTaskHandler+0xf6>
						frame->header.nwkFcf.
						ackRequest) {
					frame->state = NWK_TX_STATE_WAIT_ACK;
    1ae0:	98 82       	st	Y, r9
					frame->tx.timeout = NWK_ACK_WAIT_TIME /
    1ae2:	fe 01       	movw	r30, r28
    1ae4:	ec 57       	subi	r30, 0x7C	; 124
    1ae6:	ff 4f       	sbci	r31, 0xFF	; 255
    1ae8:	f1 82       	std	Z+1, r15	; 0x01
							NWK_TX_ACK_WAIT_TIMER_INTERVAL
							+ 1;
					SYS_TimerStart(&nwkTxAckWaitTimer);
    1aea:	e0 82       	st	Z, r14
    1aec:	88 e7       	ldi	r24, 0x78	; 120
    1aee:	97 e0       	ldi	r25, 0x07	; 7
    1af0:	48 d2       	rcall	.+1168   	; 0x1f82 <SYS_TimerStart>
    1af2:	13 c0       	rjmp	.+38     	; 0x1b1a <nwkTxTaskHandler+0x11c>
				} else {
					frame->state = NWK_TX_STATE_CONFIRM;
    1af4:	d8 82       	st	Y, r13
				}
			} else {
				frame->state = NWK_TX_STATE_CONFIRM;
    1af6:	11 c0       	rjmp	.+34     	; 0x1b1a <nwkTxTaskHandler+0x11c>
    1af8:	d8 82       	st	Y, r13
			break;

		case NWK_TX_STATE_CONFIRM:
		{
#ifdef NWK_ENABLE_ROUTING
			nwkRouteFrameSent(frame);
    1afa:	0f c0       	rjmp	.+30     	; 0x1b1a <nwkTxTaskHandler+0x11c>
    1afc:	ce 01       	movw	r24, r28
    1afe:	3f d9       	rcall	.-3458   	; 0xd7e <nwkRouteFrameSent>
#endif
			if (NULL == frame->tx.confirm) {
    1b00:	fe 01       	movw	r30, r28
    1b02:	e9 57       	subi	r30, 0x79	; 121
    1b04:	ff 4f       	sbci	r31, 0xFF	; 255
    1b06:	01 90       	ld	r0, Z+
    1b08:	f0 81       	ld	r31, Z
    1b0a:	e0 2d       	mov	r30, r0
    1b0c:	30 97       	sbiw	r30, 0x00	; 0
				nwkFrameFree(frame);
    1b0e:	19 f4       	brne	.+6      	; 0x1b16 <nwkTxTaskHandler+0x118>
    1b10:	ce 01       	movw	r24, r28
    1b12:	16 d8       	rcall	.-4052   	; 0xb40 <nwkFrameFree>
			} else {
				frame->tx.confirm(frame);
    1b14:	02 c0       	rjmp	.+4      	; 0x1b1a <nwkTxTaskHandler+0x11c>
    1b16:	ce 01       	movw	r24, r28
*****************************************************************************/
void nwkTxTaskHandler(void)
{
	NwkFrame_t *frame = NULL;

	while (NULL != (frame = nwkFrameNext(frame))) {
    1b18:	19 95       	eicall
    1b1a:	ce 01       	movw	r24, r28
    1b1c:	1b d8       	rcall	.-4042   	; 0xb54 <nwkFrameNext>
    1b1e:	ec 01       	movw	r28, r24
    1b20:	89 2b       	or	r24, r25
    1b22:	09 f0       	breq	.+2      	; 0x1b26 <nwkTxTaskHandler+0x128>
    1b24:	95 cf       	rjmp	.-214    	; 0x1a50 <nwkTxTaskHandler+0x52>

		default:
			break;
		}
	}
}
    1b26:	df 91       	pop	r29
    1b28:	cf 91       	pop	r28
    1b2a:	1f 91       	pop	r17
    1b2c:	0f 91       	pop	r16
    1b2e:	ff 90       	pop	r15
    1b30:	ef 90       	pop	r14
    1b32:	df 90       	pop	r13
    1b34:	cf 90       	pop	r12
    1b36:	bf 90       	pop	r11
    1b38:	af 90       	pop	r10
    1b3a:	9f 90       	pop	r9
    1b3c:	08 95       	ret

00001b3e <phySetChannel>:
	IEEE_ADDR_2_REG = *ptr_to_reg++;
	IEEE_ADDR_3_REG = *ptr_to_reg++;
	IEEE_ADDR_4_REG = *ptr_to_reg++;
	IEEE_ADDR_5_REG = *ptr_to_reg++;
	IEEE_ADDR_6_REG = *ptr_to_reg++;
	IEEE_ADDR_7_REG = *ptr_to_reg;
    1b3e:	80 91 87 07 	lds	r24, 0x0787	; 0x800787 <phyBand>
    1b42:	98 2f       	mov	r25, r24
    1b44:	9f 70       	andi	r25, 0x0F	; 15
    1b46:	e4 e5       	ldi	r30, 0x54	; 84
    1b48:	f1 e0       	ldi	r31, 0x01	; 1
    1b4a:	80 81       	ld	r24, Z
    1b4c:	80 7f       	andi	r24, 0xF0	; 240
    1b4e:	89 2b       	or	r24, r25
    1b50:	80 83       	st	Z, r24
    1b52:	80 91 87 07 	lds	r24, 0x0787	; 0x800787 <phyBand>
    1b56:	88 23       	and	r24, r24
    1b58:	29 f0       	breq	.+10     	; 0x1b64 <phySetChannel+0x26>
    1b5a:	80 91 88 07 	lds	r24, 0x0788	; 0x800788 <phyChannel>
    1b5e:	80 93 53 01 	sts	0x0153, r24	; 0x800153 <__TEXT_REGION_LENGTH__+0x700153>
    1b62:	08 95       	ret
    1b64:	80 91 88 07 	lds	r24, 0x0788	; 0x800788 <phyChannel>
    1b68:	98 2f       	mov	r25, r24
    1b6a:	9f 71       	andi	r25, 0x1F	; 31
    1b6c:	e8 e4       	ldi	r30, 0x48	; 72
    1b6e:	f1 e0       	ldi	r31, 0x01	; 1
    1b70:	80 81       	ld	r24, Z
    1b72:	80 7e       	andi	r24, 0xE0	; 224
    1b74:	89 2b       	or	r24, r25
    1b76:	80 83       	st	Z, r24
    1b78:	08 95       	ret

00001b7a <phyTrxSetState>:
    1b7a:	a2 e4       	ldi	r26, 0x42	; 66
    1b7c:	b1 e0       	ldi	r27, 0x01	; 1
    1b7e:	23 e0       	ldi	r18, 0x03	; 3
    1b80:	e1 e4       	ldi	r30, 0x41	; 65
    1b82:	f1 e0       	ldi	r31, 0x01	; 1
    1b84:	2c 93       	st	X, r18
    1b86:	90 81       	ld	r25, Z
    1b88:	9f 71       	andi	r25, 0x1F	; 31
    1b8a:	98 30       	cpi	r25, 0x08	; 8
    1b8c:	d9 f7       	brne	.-10     	; 0x1b84 <phyTrxSetState+0xa>
    1b8e:	a2 e4       	ldi	r26, 0x42	; 66
    1b90:	b1 e0       	ldi	r27, 0x01	; 1
    1b92:	e1 e4       	ldi	r30, 0x41	; 65
    1b94:	f1 e0       	ldi	r31, 0x01	; 1
    1b96:	8c 93       	st	X, r24
    1b98:	90 81       	ld	r25, Z
    1b9a:	9f 71       	andi	r25, 0x1F	; 31
    1b9c:	89 13       	cpse	r24, r25
    1b9e:	fb cf       	rjmp	.-10     	; 0x1b96 <phyTrxSetState+0x1c>
    1ba0:	08 95       	ret

00001ba2 <phySetRxState>:
    1ba2:	88 e0       	ldi	r24, 0x08	; 8
    1ba4:	ea df       	rcall	.-44     	; 0x1b7a <phyTrxSetState>
    1ba6:	8f ef       	ldi	r24, 0xFF	; 255
    1ba8:	80 93 4f 01 	sts	0x014F, r24	; 0x80014f <__TEXT_REGION_LENGTH__+0x70014f>
    1bac:	80 91 89 07 	lds	r24, 0x0789	; 0x800789 <phyRxState>
    1bb0:	88 23       	and	r24, r24
    1bb2:	11 f0       	breq	.+4      	; 0x1bb8 <phySetRxState+0x16>
    1bb4:	86 e1       	ldi	r24, 0x16	; 22
    1bb6:	e1 cf       	rjmp	.-62     	; 0x1b7a <phyTrxSetState>
    1bb8:	08 95       	ret

00001bba <PHY_Init>:
    1bba:	60 e4       	ldi	r22, 0x40	; 64
    1bbc:	81 e0       	ldi	r24, 0x01	; 1
    1bbe:	0e 94 e2 01 	call	0x3c4	; 0x3c4 <sysclk_enable_module>
    1bc2:	e9 e3       	ldi	r30, 0x39	; 57
    1bc4:	f1 e0       	ldi	r31, 0x01	; 1
    1bc6:	80 81       	ld	r24, Z
    1bc8:	81 60       	ori	r24, 0x01	; 1
    1bca:	80 83       	st	Z, r24
    1bcc:	10 92 89 07 	sts	0x0789, r1	; 0x800789 <phyRxState>
    1bd0:	10 92 87 07 	sts	0x0787, r1	; 0x800787 <phyBand>
    1bd4:	81 e0       	ldi	r24, 0x01	; 1
    1bd6:	80 93 0a 08 	sts	0x080A, r24	; 0x80080a <phyState>
    1bda:	88 e0       	ldi	r24, 0x08	; 8
    1bdc:	ce df       	rcall	.-100    	; 0x1b7a <phyTrxSetState>
    1bde:	8b ee       	ldi	r24, 0xEB	; 235
    1be0:	80 93 56 01 	sts	0x0156, r24	; 0x800156 <__TEXT_REGION_LENGTH__+0x700156>
    1be4:	ec e4       	ldi	r30, 0x4C	; 76
    1be6:	f1 e0       	ldi	r31, 0x01	; 1
    1be8:	80 81       	ld	r24, Z
    1bea:	83 60       	ori	r24, 0x03	; 3
    1bec:	80 83       	st	Z, r24
    1bee:	80 81       	ld	r24, Z
    1bf0:	80 68       	ori	r24, 0x80	; 128
    1bf2:	80 83       	st	Z, r24
    1bf4:	08 95       	ret

00001bf6 <PHY_SetRxState>:
    1bf6:	80 93 89 07 	sts	0x0789, r24	; 0x800789 <phyRxState>
    1bfa:	d3 cf       	rjmp	.-90     	; 0x1ba2 <phySetRxState>
    1bfc:	08 95       	ret

00001bfe <PHY_SetChannel>:
    1bfe:	80 93 88 07 	sts	0x0788, r24	; 0x800788 <phyChannel>
    1c02:	9d cf       	rjmp	.-198    	; 0x1b3e <phySetChannel>
    1c04:	08 95       	ret

00001c06 <PHY_SetPanId>:
    1c06:	cf 93       	push	r28
    1c08:	df 93       	push	r29
    1c0a:	1f 92       	push	r1
    1c0c:	1f 92       	push	r1
    1c0e:	cd b7       	in	r28, 0x3d	; 61
    1c10:	de b7       	in	r29, 0x3e	; 62
    1c12:	9a 83       	std	Y+2, r25	; 0x02
    1c14:	89 83       	std	Y+1, r24	; 0x01
    1c16:	80 93 62 01 	sts	0x0162, r24	; 0x800162 <__TEXT_REGION_LENGTH__+0x700162>
    1c1a:	8a 81       	ldd	r24, Y+2	; 0x02
    1c1c:	80 93 63 01 	sts	0x0163, r24	; 0x800163 <__TEXT_REGION_LENGTH__+0x700163>
    1c20:	0f 90       	pop	r0
    1c22:	0f 90       	pop	r0
    1c24:	df 91       	pop	r29
    1c26:	cf 91       	pop	r28
    1c28:	08 95       	ret

00001c2a <PHY_SetShortAddr>:
    1c2a:	cf 93       	push	r28
    1c2c:	df 93       	push	r29
    1c2e:	1f 92       	push	r1
    1c30:	1f 92       	push	r1
    1c32:	cd b7       	in	r28, 0x3d	; 61
    1c34:	de b7       	in	r29, 0x3e	; 62
    1c36:	9a 83       	std	Y+2, r25	; 0x02
    1c38:	89 83       	std	Y+1, r24	; 0x01
    1c3a:	80 93 60 01 	sts	0x0160, r24	; 0x800160 <__TEXT_REGION_LENGTH__+0x700160>
    1c3e:	8a 81       	ldd	r24, Y+2	; 0x02
    1c40:	80 93 61 01 	sts	0x0161, r24	; 0x800161 <__TEXT_REGION_LENGTH__+0x700161>
    1c44:	99 81       	ldd	r25, Y+1	; 0x01
    1c46:	8a 81       	ldd	r24, Y+2	; 0x02
    1c48:	89 0f       	add	r24, r25
    1c4a:	80 93 6d 01 	sts	0x016D, r24	; 0x80016d <__TEXT_REGION_LENGTH__+0x70016d>
    1c4e:	0f 90       	pop	r0
    1c50:	0f 90       	pop	r0
    1c52:	df 91       	pop	r29
    1c54:	cf 91       	pop	r28
    1c56:	08 95       	ret

00001c58 <PHY_DataReq>:
    1c58:	cf 93       	push	r28
    1c5a:	df 93       	push	r29
    1c5c:	ec 01       	movw	r28, r24
    1c5e:	89 e1       	ldi	r24, 0x19	; 25
    1c60:	8c df       	rcall	.-232    	; 0x1b7a <phyTrxSetState>
    1c62:	8f ef       	ldi	r24, 0xFF	; 255
    1c64:	80 93 4f 01 	sts	0x014F, r24	; 0x80014f <__TEXT_REGION_LENGTH__+0x70014f>
    1c68:	88 81       	ld	r24, Y
    1c6a:	8e 5f       	subi	r24, 0xFE	; 254
    1c6c:	80 93 80 01 	sts	0x0180, r24	; 0x800180 <__TEXT_REGION_LENGTH__+0x700180>
    1c70:	88 81       	ld	r24, Y
    1c72:	88 23       	and	r24, r24
    1c74:	81 f0       	breq	.+32     	; 0x1c96 <PHY_DataReq+0x3e>
    1c76:	20 e0       	ldi	r18, 0x00	; 0
    1c78:	82 2f       	mov	r24, r18
    1c7a:	90 e0       	ldi	r25, 0x00	; 0
    1c7c:	fc 01       	movw	r30, r24
    1c7e:	ef 57       	subi	r30, 0x7F	; 127
    1c80:	fe 4f       	sbci	r31, 0xFE	; 254
    1c82:	de 01       	movw	r26, r28
    1c84:	a8 0f       	add	r26, r24
    1c86:	b9 1f       	adc	r27, r25
    1c88:	11 96       	adiw	r26, 0x01	; 1
    1c8a:	8c 91       	ld	r24, X
    1c8c:	80 83       	st	Z, r24
    1c8e:	2f 5f       	subi	r18, 0xFF	; 255
    1c90:	88 81       	ld	r24, Y
    1c92:	28 17       	cp	r18, r24
    1c94:	88 f3       	brcs	.-30     	; 0x1c78 <PHY_DataReq+0x20>
    1c96:	83 e0       	ldi	r24, 0x03	; 3
    1c98:	80 93 0a 08 	sts	0x080A, r24	; 0x80080a <phyState>
    1c9c:	82 e0       	ldi	r24, 0x02	; 2
    1c9e:	80 93 42 01 	sts	0x0142, r24	; 0x800142 <__TEXT_REGION_LENGTH__+0x700142>
    1ca2:	df 91       	pop	r29
    1ca4:	cf 91       	pop	r28
    1ca6:	08 95       	ret

00001ca8 <PHY_EncryptReq>:
    1ca8:	cf 93       	push	r28
    1caa:	df 93       	push	r29
    1cac:	ec 01       	movw	r28, r24
    1cae:	cb 01       	movw	r24, r22
    1cb0:	40 e0       	ldi	r20, 0x00	; 0
    1cb2:	60 e0       	ldi	r22, 0x00	; 0
    1cb4:	51 d6       	rcall	.+3234   	; 0x2958 <sal_aes_setup>
    1cb6:	ce 01       	movw	r24, r28
    1cb8:	39 d6       	rcall	.+3186   	; 0x292c <sal_aes_exec>
    1cba:	ce 01       	movw	r24, r28
    1cbc:	db d6       	rcall	.+3510   	; 0x2a74 <sal_aes_read>
    1cbe:	df 91       	pop	r29
    1cc0:	cf 91       	pop	r28
    1cc2:	08 95       	ret

00001cc4 <PHY_TaskHandler>:
}

/*************************************************************************//**
*****************************************************************************/
void PHY_TaskHandler(void)
{
    1cc4:	1f 93       	push	r17
    1cc6:	cf 93       	push	r28
    1cc8:	df 93       	push	r29
    1cca:	00 d0       	rcall	.+0      	; 0x1ccc <PHY_TaskHandler+0x8>
    1ccc:	1f 92       	push	r1
    1cce:	1f 92       	push	r1
    1cd0:	cd b7       	in	r28, 0x3d	; 61
    1cd2:	de b7       	in	r29, 0x3e	; 62
	if (PHY_STATE_SLEEP == phyState) {
    1cd4:	80 91 0a 08 	lds	r24, 0x080A	; 0x80080a <phyState>
    1cd8:	82 30       	cpi	r24, 0x02	; 2
    1cda:	09 f4       	brne	.+2      	; 0x1cde <PHY_TaskHandler+0x1a>
    1cdc:	65 c0       	rjmp	.+202    	; 0x1da8 <PHY_TaskHandler+0xe4>
		return;
	}

	if (IRQ_STATUS_REG_s.rxEnd) {
    1cde:	80 91 4f 01 	lds	r24, 0x014F	; 0x80014f <__TEXT_REGION_LENGTH__+0x70014f>
    1ce2:	83 ff       	sbrs	r24, 3
    1ce4:	3e c0       	rjmp	.+124    	; 0x1d62 <PHY_TaskHandler+0x9e>
		PHY_DataInd_t ind;
		uint8_t size = TST_RX_LENGTH_REG;
    1ce6:	a0 91 7b 01 	lds	r26, 0x017B	; 0x80017b <__TEXT_REGION_LENGTH__+0x70017b>

		for (uint8_t i = 0; i < size + 1 /*lqi*/; i++) {
    1cea:	6a 2f       	mov	r22, r26
    1cec:	70 e0       	ldi	r23, 0x00	; 0
    1cee:	ab 01       	movw	r20, r22
    1cf0:	4f 5f       	subi	r20, 0xFF	; 255
    1cf2:	5f 4f       	sbci	r21, 0xFF	; 255
    1cf4:	80 e0       	ldi	r24, 0x00	; 0
    1cf6:	90 e0       	ldi	r25, 0x00	; 0
    1cf8:	20 e0       	ldi	r18, 0x00	; 0
			phyRxBuffer[i] = TRX_FRAME_BUFFER(i);
    1cfa:	fc 01       	movw	r30, r24
    1cfc:	e0 58       	subi	r30, 0x80	; 128
    1cfe:	fe 4f       	sbci	r31, 0xFE	; 254
    1d00:	30 81       	ld	r19, Z
    1d02:	fc 01       	movw	r30, r24
    1d04:	e6 57       	subi	r30, 0x76	; 118
    1d06:	f8 4f       	sbci	r31, 0xF8	; 248
    1d08:	30 83       	st	Z, r19

	if (IRQ_STATUS_REG_s.rxEnd) {
		PHY_DataInd_t ind;
		uint8_t size = TST_RX_LENGTH_REG;

		for (uint8_t i = 0; i < size + 1 /*lqi*/; i++) {
    1d0a:	2f 5f       	subi	r18, 0xFF	; 255
    1d0c:	82 2f       	mov	r24, r18
    1d0e:	90 e0       	ldi	r25, 0x00	; 0
    1d10:	84 17       	cp	r24, r20
    1d12:	95 07       	cpc	r25, r21
    1d14:	94 f3       	brlt	.-28     	; 0x1cfa <PHY_TaskHandler+0x36>
			phyRxBuffer[i] = TRX_FRAME_BUFFER(i);
		}

		ind.data = phyRxBuffer;
    1d16:	8a e8       	ldi	r24, 0x8A	; 138
    1d18:	97 e0       	ldi	r25, 0x07	; 7
    1d1a:	9a 83       	std	Y+2, r25	; 0x02
    1d1c:	89 83       	std	Y+1, r24	; 0x01
		ind.size = size - PHY_CRC_SIZE;
    1d1e:	a2 50       	subi	r26, 0x02	; 2
    1d20:	ab 83       	std	Y+3, r26	; 0x03
		ind.lqi  = phyRxBuffer[size];
    1d22:	fb 01       	movw	r30, r22
    1d24:	e6 57       	subi	r30, 0x76	; 118
    1d26:	f8 4f       	sbci	r31, 0xF8	; 248
    1d28:	80 81       	ld	r24, Z
    1d2a:	8c 83       	std	Y+4, r24	; 0x04
		ind.rssi = (int8_t)PHY_ED_LEVEL_REG + PHY_RSSI_BASE_VAL;
    1d2c:	80 91 47 01 	lds	r24, 0x0147	; 0x800147 <__TEXT_REGION_LENGTH__+0x700147>
    1d30:	8a 55       	subi	r24, 0x5A	; 90
    1d32:	8d 83       	std	Y+5, r24	; 0x05
		PHY_DataInd(&ind);
    1d34:	ce 01       	movw	r24, r28
    1d36:	01 96       	adiw	r24, 0x01	; 1
    1d38:	2f d9       	rcall	.-3490   	; 0xf98 <PHY_DataInd>

		while (TRX_STATUS_RX_AACK_ON != TRX_STATUS_REG_s.trxStatus) {
    1d3a:	e1 e4       	ldi	r30, 0x41	; 65
    1d3c:	f1 e0       	ldi	r31, 0x01	; 1
    1d3e:	80 81       	ld	r24, Z
    1d40:	8f 71       	andi	r24, 0x1F	; 31
    1d42:	86 31       	cpi	r24, 0x16	; 22
    1d44:	e1 f7       	brne	.-8      	; 0x1d3e <PHY_TaskHandler+0x7a>
		}

		IRQ_STATUS_REG_s.rxEnd = 1;
    1d46:	ef e4       	ldi	r30, 0x4F	; 79
    1d48:	f1 e0       	ldi	r31, 0x01	; 1
    1d4a:	80 81       	ld	r24, Z
    1d4c:	88 60       	ori	r24, 0x08	; 8
    1d4e:	80 83       	st	Z, r24
		TRX_CTRL_2_REG_s.rxSafeMode = 0;
    1d50:	ec e4       	ldi	r30, 0x4C	; 76
    1d52:	f1 e0       	ldi	r31, 0x01	; 1
    1d54:	80 81       	ld	r24, Z
    1d56:	8f 77       	andi	r24, 0x7F	; 127
    1d58:	80 83       	st	Z, r24
		TRX_CTRL_2_REG_s.rxSafeMode = 1;
    1d5a:	80 81       	ld	r24, Z
    1d5c:	80 68       	ori	r24, 0x80	; 128
    1d5e:	80 83       	st	Z, r24
    1d60:	23 c0       	rjmp	.+70     	; 0x1da8 <PHY_TaskHandler+0xe4>
	} else if (IRQ_STATUS_REG_s.txEnd) {
    1d62:	80 91 4f 01 	lds	r24, 0x014F	; 0x80014f <__TEXT_REGION_LENGTH__+0x70014f>
    1d66:	86 ff       	sbrs	r24, 6
    1d68:	1f c0       	rjmp	.+62     	; 0x1da8 <PHY_TaskHandler+0xe4>
		if (TRX_STATUS_TX_ARET_ON == TRX_STATUS_REG_s.trxStatus) {
    1d6a:	80 91 41 01 	lds	r24, 0x0141	; 0x800141 <__TEXT_REGION_LENGTH__+0x700141>
    1d6e:	8f 71       	andi	r24, 0x1F	; 31
    1d70:	89 31       	cpi	r24, 0x19	; 25
    1d72:	a9 f4       	brne	.+42     	; 0x1d9e <PHY_TaskHandler+0xda>
			uint8_t status = TRX_STATE_REG_s.tracStatus;
    1d74:	10 91 42 01 	lds	r17, 0x0142	; 0x800142 <__TEXT_REGION_LENGTH__+0x700142>
    1d78:	12 95       	swap	r17
    1d7a:	16 95       	lsr	r17
    1d7c:	17 70       	andi	r17, 0x07	; 7

			if (TRAC_STATUS_SUCCESS == status) {
    1d7e:	49 f0       	breq	.+18     	; 0x1d92 <PHY_TaskHandler+0xce>
				status = PHY_STATUS_SUCCESS;
			} else if (TRAC_STATUS_CHANNEL_ACCESS_FAILURE ==
    1d80:	13 30       	cpi	r17, 0x03	; 3
    1d82:	21 f0       	breq	.+8      	; 0x1d8c <PHY_TaskHandler+0xc8>
					status) {
				status = PHY_STATUS_CHANNEL_ACCESS_FAILURE;
			} else if (TRAC_STATUS_NO_ACK == status) {
    1d84:	15 30       	cpi	r17, 0x05	; 5
    1d86:	21 f0       	breq	.+8      	; 0x1d90 <PHY_TaskHandler+0xcc>
				status = PHY_STATUS_NO_ACK;
			} else {
				status = PHY_STATUS_ERROR;
    1d88:	13 e0       	ldi	r17, 0x03	; 3
    1d8a:	03 c0       	rjmp	.+6      	; 0x1d92 <PHY_TaskHandler+0xce>

			if (TRAC_STATUS_SUCCESS == status) {
				status = PHY_STATUS_SUCCESS;
			} else if (TRAC_STATUS_CHANNEL_ACCESS_FAILURE ==
					status) {
				status = PHY_STATUS_CHANNEL_ACCESS_FAILURE;
    1d8c:	11 e0       	ldi	r17, 0x01	; 1
    1d8e:	01 c0       	rjmp	.+2      	; 0x1d92 <PHY_TaskHandler+0xce>
				status = PHY_STATUS_NO_ACK;
			} else {
				status = PHY_STATUS_ERROR;
			}

			phySetRxState();
    1d90:	12 e0       	ldi	r17, 0x02	; 2
    1d92:	07 df       	rcall	.-498    	; 0x1ba2 <phySetRxState>
			phyState = PHY_STATE_IDLE;
    1d94:	81 e0       	ldi	r24, 0x01	; 1
    1d96:	80 93 0a 08 	sts	0x080A, r24	; 0x80080a <phyState>

			PHY_DataConf(status);
    1d9a:	81 2f       	mov	r24, r17
    1d9c:	0d de       	rcall	.-998    	; 0x19b8 <PHY_DataConf>
		}

		IRQ_STATUS_REG_s.txEnd = 1;
    1d9e:	ef e4       	ldi	r30, 0x4F	; 79
    1da0:	f1 e0       	ldi	r31, 0x01	; 1
    1da2:	80 81       	ld	r24, Z
    1da4:	80 64       	ori	r24, 0x40	; 64
    1da6:	80 83       	st	Z, r24
	}
}
    1da8:	0f 90       	pop	r0
    1daa:	0f 90       	pop	r0
    1dac:	0f 90       	pop	r0
    1dae:	0f 90       	pop	r0
    1db0:	0f 90       	pop	r0
    1db2:	df 91       	pop	r29
    1db4:	cf 91       	pop	r28
    1db6:	1f 91       	pop	r17
    1db8:	08 95       	ret

00001dba <SYS_Init>:

/*************************************************************************//**
*****************************************************************************/
void SYS_Init(void)
{
	SYS_TimerInit();
    1dba:	7b d0       	rcall	.+246    	; 0x1eb2 <SYS_TimerInit>
#if SYS_SECURITY_MODE == 0
	sal_init();
    1dbc:	b6 d5       	rcall	.+2924   	; 0x292a <sal_init>
#endif
	PHY_Init();
    1dbe:	fd de       	rcall	.-518    	; 0x1bba <PHY_Init>
    1dc0:	0c 94 37 04 	jmp	0x86e	; 0x86e <NWK_Init>
	NWK_Init();
    1dc4:	08 95       	ret

00001dc6 <SYS_TaskHandler>:
    1dc6:	7e df       	rcall	.-260    	; 0x1cc4 <PHY_TaskHandler>
/*************************************************************************//**
*****************************************************************************/
void SYS_TaskHandler(void)
{
	PHY_TaskHandler();
	NWK_TaskHandler();
    1dc8:	0e 94 66 04 	call	0x8cc	; 0x8cc <NWK_TaskHandler>
	SYS_TimerTaskHandler();
    1dcc:	e5 c0       	rjmp	.+458    	; 0x1f98 <SYS_TimerTaskHandler>
    1dce:	08 95       	ret

00001dd0 <SYS_EncryptReq>:
/*************************************************************************//**
*****************************************************************************/
void SYS_EncryptReq(uint32_t *text, uint32_t *key)
{
#if SYS_SECURITY_MODE == 0
	PHY_EncryptReq((uint8_t *)text, (uint8_t *)key);
    1dd0:	6b df       	rcall	.-298    	; 0x1ca8 <PHY_EncryptReq>
	text[2] ^= text[0];
	text[3] ^= text[1];
	xtea(&text[2], key);
#endif

	SYS_EncryptConf();
    1dd2:	7e cb       	rjmp	.-2308   	; 0x14d0 <SYS_EncryptConf>
    1dd4:	08 95       	ret

00001dd6 <placeTimer>:
    1dd6:	0f 93       	push	r16
}

/*************************************************************************//**
*****************************************************************************/
static void placeTimer(SYS_Timer_t *timer)
{
    1dd8:	1f 93       	push	r17
    1dda:	cf 93       	push	r28
    1ddc:	df 93       	push	r29
    1dde:	ec 01       	movw	r28, r24
	if (timers) {
    1de0:	80 91 0b 08 	lds	r24, 0x080B	; 0x80080b <timers>
    1de4:	90 91 0c 08 	lds	r25, 0x080C	; 0x80080c <timers+0x1>
    1de8:	00 97       	sbiw	r24, 0x00	; 0
    1dea:	09 f4       	brne	.+2      	; 0x1dee <placeTimer+0x18>
    1dec:	45 c0       	rjmp	.+138    	; 0x1e78 <placeTimer+0xa2>
		SYS_Timer_t *prev = NULL;
		uint32_t timeout = timer->interval;
    1dee:	4e 81       	ldd	r20, Y+6	; 0x06
    1df0:	5f 81       	ldd	r21, Y+7	; 0x07
    1df2:	68 85       	ldd	r22, Y+8	; 0x08
    1df4:	79 85       	ldd	r23, Y+9	; 0x09

		for (SYS_Timer_t *t = timers; t; t = t->next) {
			if (timeout < t->timeout) {
    1df6:	fc 01       	movw	r30, r24
    1df8:	02 81       	ldd	r16, Z+2	; 0x02
    1dfa:	13 81       	ldd	r17, Z+3	; 0x03
    1dfc:	24 81       	ldd	r18, Z+4	; 0x04
    1dfe:	35 81       	ldd	r19, Z+5	; 0x05
    1e00:	40 17       	cp	r20, r16
    1e02:	51 07       	cpc	r21, r17
    1e04:	62 07       	cpc	r22, r18
    1e06:	73 07       	cpc	r23, r19
    1e08:	60 f0       	brcs	.+24     	; 0x1e22 <placeTimer+0x4c>
    1e0a:	dc 01       	movw	r26, r24
    1e0c:	17 c0       	rjmp	.+46     	; 0x1e3c <placeTimer+0x66>
    1e0e:	02 81       	ldd	r16, Z+2	; 0x02
    1e10:	13 81       	ldd	r17, Z+3	; 0x03
    1e12:	24 81       	ldd	r18, Z+4	; 0x04
    1e14:	35 81       	ldd	r19, Z+5	; 0x05
    1e16:	40 17       	cp	r20, r16
    1e18:	51 07       	cpc	r21, r17
    1e1a:	62 07       	cpc	r22, r18
    1e1c:	73 07       	cpc	r23, r19
    1e1e:	68 f4       	brcc	.+26     	; 0x1e3a <placeTimer+0x64>
    1e20:	03 c0       	rjmp	.+6      	; 0x1e28 <placeTimer+0x52>
{
	if (timers) {
		SYS_Timer_t *prev = NULL;
		uint32_t timeout = timer->interval;

		for (SYS_Timer_t *t = timers; t; t = t->next) {
    1e22:	fc 01       	movw	r30, r24
/*************************************************************************//**
*****************************************************************************/
static void placeTimer(SYS_Timer_t *timer)
{
	if (timers) {
		SYS_Timer_t *prev = NULL;
    1e24:	a0 e0       	ldi	r26, 0x00	; 0
    1e26:	b0 e0       	ldi	r27, 0x00	; 0
		uint32_t timeout = timer->interval;

		for (SYS_Timer_t *t = timers; t; t = t->next) {
			if (timeout < t->timeout) {
				t->timeout -= timeout;
    1e28:	04 1b       	sub	r16, r20
    1e2a:	15 0b       	sbc	r17, r21
    1e2c:	26 0b       	sbc	r18, r22
    1e2e:	37 0b       	sbc	r19, r23
    1e30:	02 83       	std	Z+2, r16	; 0x02
    1e32:	13 83       	std	Z+3, r17	; 0x03
    1e34:	24 83       	std	Z+4, r18	; 0x04
    1e36:	35 83       	std	Z+5, r19	; 0x05
				break;
    1e38:	0a c0       	rjmp	.+20     	; 0x1e4e <placeTimer+0x78>
{
	if (timers) {
		SYS_Timer_t *prev = NULL;
		uint32_t timeout = timer->interval;

		for (SYS_Timer_t *t = timers; t; t = t->next) {
    1e3a:	df 01       	movw	r26, r30
			if (timeout < t->timeout) {
				t->timeout -= timeout;
				break;
			} else {
				timeout -= t->timeout;
    1e3c:	40 1b       	sub	r20, r16
    1e3e:	51 0b       	sbc	r21, r17
    1e40:	62 0b       	sbc	r22, r18
    1e42:	73 0b       	sbc	r23, r19
{
	if (timers) {
		SYS_Timer_t *prev = NULL;
		uint32_t timeout = timer->interval;

		for (SYS_Timer_t *t = timers; t; t = t->next) {
    1e44:	ed 91       	ld	r30, X+
    1e46:	fc 91       	ld	r31, X
    1e48:	11 97       	sbiw	r26, 0x01	; 1
    1e4a:	30 97       	sbiw	r30, 0x00	; 0
    1e4c:	01 f7       	brne	.-64     	; 0x1e0e <placeTimer+0x38>
			}

			prev = t;
		}

		timer->timeout = timeout;
    1e4e:	4a 83       	std	Y+2, r20	; 0x02
    1e50:	5b 83       	std	Y+3, r21	; 0x03
    1e52:	6c 83       	std	Y+4, r22	; 0x04
    1e54:	7d 83       	std	Y+5, r23	; 0x05

		if (prev) {
    1e56:	10 97       	sbiw	r26, 0x00	; 0
    1e58:	41 f0       	breq	.+16     	; 0x1e6a <placeTimer+0x94>
			timer->next = prev->next;
    1e5a:	8d 91       	ld	r24, X+
    1e5c:	9c 91       	ld	r25, X
    1e5e:	11 97       	sbiw	r26, 0x01	; 1
    1e60:	99 83       	std	Y+1, r25	; 0x01
    1e62:	88 83       	st	Y, r24
			prev->next = timer;
    1e64:	cd 93       	st	X+, r28
    1e66:	dc 93       	st	X, r29
    1e68:	15 c0       	rjmp	.+42     	; 0x1e94 <placeTimer+0xbe>
		} else {
			timer->next = timers;
    1e6a:	99 83       	std	Y+1, r25	; 0x01
    1e6c:	88 83       	st	Y, r24
			timers = timer;
    1e6e:	d0 93 0c 08 	sts	0x080C, r29	; 0x80080c <timers+0x1>
    1e72:	c0 93 0b 08 	sts	0x080B, r28	; 0x80080b <timers>
    1e76:	0e c0       	rjmp	.+28     	; 0x1e94 <placeTimer+0xbe>
		}
	} else {
		timer->next = NULL;
    1e78:	19 82       	std	Y+1, r1	; 0x01
    1e7a:	18 82       	st	Y, r1
		timer->timeout = timer->interval;
    1e7c:	8e 81       	ldd	r24, Y+6	; 0x06
    1e7e:	9f 81       	ldd	r25, Y+7	; 0x07
    1e80:	a8 85       	ldd	r26, Y+8	; 0x08
    1e82:	b9 85       	ldd	r27, Y+9	; 0x09
    1e84:	8a 83       	std	Y+2, r24	; 0x02
    1e86:	9b 83       	std	Y+3, r25	; 0x03
    1e88:	ac 83       	std	Y+4, r26	; 0x04
    1e8a:	bd 83       	std	Y+5, r27	; 0x05
		timers = timer;
    1e8c:	d0 93 0c 08 	sts	0x080C, r29	; 0x80080c <timers+0x1>
    1e90:	c0 93 0b 08 	sts	0x080B, r28	; 0x80080b <timers>
	}
}
    1e94:	df 91       	pop	r29
    1e96:	cf 91       	pop	r28
    1e98:	1f 91       	pop	r17
    1e9a:	0f 91       	pop	r16
    1e9c:	08 95       	ret

00001e9e <SYS_HwExpiry_Cb>:

/*****************************************************************************
*****************************************************************************/
void SYS_HwExpiry_Cb(void)
{
	SysTimerIrqCount++;
    1e9e:	80 91 95 09 	lds	r24, 0x0995	; 0x800995 <SysTimerIrqCount>
    1ea2:	8f 5f       	subi	r24, 0xFF	; 255
    1ea4:	80 93 95 09 	sts	0x0995, r24	; 0x800995 <SysTimerIrqCount>
	common_tc_delay(SYS_TIMER_INTERVAL * MS);
    1ea8:	80 e1       	ldi	r24, 0x10	; 16
    1eaa:	97 e2       	ldi	r25, 0x27	; 39
    1eac:	0c 94 ff 00 	jmp	0x1fe	; 0x1fe <common_tc_delay>
    1eb0:	08 95       	ret

00001eb2 <SYS_TimerInit>:

/*************************************************************************//**
*****************************************************************************/
void SYS_TimerInit(void)
{
	SysTimerIrqCount = 0;
    1eb2:	10 92 95 09 	sts	0x0995, r1	; 0x800995 <SysTimerIrqCount>
	set_common_tc_expiry_callback(SYS_HwExpiry_Cb);
    1eb6:	8f e4       	ldi	r24, 0x4F	; 79
    1eb8:	9f e0       	ldi	r25, 0x0F	; 15
    1eba:	0e 94 c2 01 	call	0x384	; 0x384 <set_common_tc_expiry_callback>
	common_tc_init();
    1ebe:	0e 94 74 01 	call	0x2e8	; 0x2e8 <common_tc_init>
	common_tc_delay(SYS_TIMER_INTERVAL * MS);
    1ec2:	80 e1       	ldi	r24, 0x10	; 16
    1ec4:	97 e2       	ldi	r25, 0x27	; 39
    1ec6:	0e 94 ff 00 	call	0x1fe	; 0x1fe <common_tc_delay>
	timers = NULL;
    1eca:	10 92 0c 08 	sts	0x080C, r1	; 0x80080c <timers+0x1>
    1ece:	10 92 0b 08 	sts	0x080B, r1	; 0x80080b <timers>
    1ed2:	08 95       	ret

00001ed4 <SYS_TimerStop>:
}

/*************************************************************************//**
*****************************************************************************/
void SYS_TimerStop(SYS_Timer_t *timer)
{
    1ed4:	cf 93       	push	r28
    1ed6:	df 93       	push	r29
	SYS_Timer_t *prev = NULL;

	for (SYS_Timer_t *t = timers; t; t = t->next) {
    1ed8:	a0 91 0b 08 	lds	r26, 0x080B	; 0x80080b <timers>
    1edc:	b0 91 0c 08 	lds	r27, 0x080C	; 0x80080c <timers+0x1>
    1ee0:	10 97       	sbiw	r26, 0x00	; 0
    1ee2:	91 f1       	breq	.+100    	; 0x1f48 <SYS_TimerStop+0x74>
		if (t == timer) {
    1ee4:	a8 17       	cp	r26, r24
    1ee6:	b9 07       	cpc	r27, r25
    1ee8:	51 f5       	brne	.+84     	; 0x1f3e <SYS_TimerStop+0x6a>
    1eea:	0a c0       	rjmp	.+20     	; 0x1f00 <SYS_TimerStop+0x2c>
    1eec:	8e 17       	cp	r24, r30
    1eee:	9f 07       	cpc	r25, r31
    1ef0:	29 f5       	brne	.+74     	; 0x1f3c <SYS_TimerStop+0x68>
			if (prev) {
    1ef2:	10 97       	sbiw	r26, 0x00	; 0
    1ef4:	31 f0       	breq	.+12     	; 0x1f02 <SYS_TimerStop+0x2e>
				prev->next = t->next;
    1ef6:	20 81       	ld	r18, Z
    1ef8:	31 81       	ldd	r19, Z+1	; 0x01
    1efa:	2d 93       	st	X+, r18
    1efc:	3c 93       	st	X, r19
    1efe:	07 c0       	rjmp	.+14     	; 0x1f0e <SYS_TimerStop+0x3a>
*****************************************************************************/
void SYS_TimerStop(SYS_Timer_t *timer)
{
	SYS_Timer_t *prev = NULL;

	for (SYS_Timer_t *t = timers; t; t = t->next) {
    1f00:	fc 01       	movw	r30, r24
		if (t == timer) {
			if (prev) {
				prev->next = t->next;
			} else {
				timers = t->next;
    1f02:	20 81       	ld	r18, Z
    1f04:	31 81       	ldd	r19, Z+1	; 0x01
    1f06:	30 93 0c 08 	sts	0x080C, r19	; 0x80080c <timers+0x1>
    1f0a:	20 93 0b 08 	sts	0x080B, r18	; 0x80080b <timers>
			}

			if (t->next) {
    1f0e:	01 90       	ld	r0, Z+
    1f10:	f0 81       	ld	r31, Z
    1f12:	e0 2d       	mov	r30, r0
    1f14:	30 97       	sbiw	r30, 0x00	; 0
    1f16:	c1 f0       	breq	.+48     	; 0x1f48 <SYS_TimerStop+0x74>
				t->next->timeout += timer->timeout;
    1f18:	42 81       	ldd	r20, Z+2	; 0x02
    1f1a:	53 81       	ldd	r21, Z+3	; 0x03
    1f1c:	64 81       	ldd	r22, Z+4	; 0x04
    1f1e:	75 81       	ldd	r23, Z+5	; 0x05
    1f20:	ec 01       	movw	r28, r24
    1f22:	8a 81       	ldd	r24, Y+2	; 0x02
    1f24:	9b 81       	ldd	r25, Y+3	; 0x03
    1f26:	ac 81       	ldd	r26, Y+4	; 0x04
    1f28:	bd 81       	ldd	r27, Y+5	; 0x05
    1f2a:	84 0f       	add	r24, r20
    1f2c:	95 1f       	adc	r25, r21
    1f2e:	a6 1f       	adc	r26, r22
    1f30:	b7 1f       	adc	r27, r23
    1f32:	82 83       	std	Z+2, r24	; 0x02
    1f34:	93 83       	std	Z+3, r25	; 0x03
    1f36:	a4 83       	std	Z+4, r26	; 0x04
    1f38:	b5 83       	std	Z+5, r27	; 0x05
    1f3a:	06 c0       	rjmp	.+12     	; 0x1f48 <SYS_TimerStop+0x74>
*****************************************************************************/
void SYS_TimerStop(SYS_Timer_t *timer)
{
	SYS_Timer_t *prev = NULL;

	for (SYS_Timer_t *t = timers; t; t = t->next) {
    1f3c:	df 01       	movw	r26, r30
    1f3e:	ed 91       	ld	r30, X+
    1f40:	fc 91       	ld	r31, X
    1f42:	11 97       	sbiw	r26, 0x01	; 1
    1f44:	30 97       	sbiw	r30, 0x00	; 0
    1f46:	91 f6       	brne	.-92     	; 0x1eec <SYS_TimerStop+0x18>
			break;
		}

		prev = t;
	}
}
    1f48:	df 91       	pop	r29
    1f4a:	cf 91       	pop	r28
    1f4c:	08 95       	ret

00001f4e <SYS_TimerStarted>:

/*************************************************************************//**
*****************************************************************************/
bool SYS_TimerStarted(SYS_Timer_t *timer)
{
	for (SYS_Timer_t *t = timers; t; t = t->next) {
    1f4e:	e0 91 0b 08 	lds	r30, 0x080B	; 0x80080b <timers>
    1f52:	f0 91 0c 08 	lds	r31, 0x080C	; 0x80080c <timers+0x1>
    1f56:	30 97       	sbiw	r30, 0x00	; 0
    1f58:	71 f0       	breq	.+28     	; 0x1f76 <SYS_TimerStarted+0x28>
		if (t == timer) {
    1f5a:	e8 17       	cp	r30, r24
    1f5c:	f9 07       	cpc	r31, r25
    1f5e:	21 f4       	brne	.+8      	; 0x1f68 <SYS_TimerStarted+0x1a>
    1f60:	0c c0       	rjmp	.+24     	; 0x1f7a <SYS_TimerStarted+0x2c>
    1f62:	8e 17       	cp	r24, r30
    1f64:	9f 07       	cpc	r25, r31
    1f66:	59 f0       	breq	.+22     	; 0x1f7e <SYS_TimerStarted+0x30>

/*************************************************************************//**
*****************************************************************************/
bool SYS_TimerStarted(SYS_Timer_t *timer)
{
	for (SYS_Timer_t *t = timers; t; t = t->next) {
    1f68:	01 90       	ld	r0, Z+
    1f6a:	f0 81       	ld	r31, Z
    1f6c:	e0 2d       	mov	r30, r0
    1f6e:	30 97       	sbiw	r30, 0x00	; 0
    1f70:	c1 f7       	brne	.-16     	; 0x1f62 <SYS_TimerStarted+0x14>
		if (t == timer) {
			return true;
		}
	}
	return false;
    1f72:	80 e0       	ldi	r24, 0x00	; 0
    1f74:	08 95       	ret
    1f76:	80 e0       	ldi	r24, 0x00	; 0
    1f78:	08 95       	ret
*****************************************************************************/
bool SYS_TimerStarted(SYS_Timer_t *timer)
{
	for (SYS_Timer_t *t = timers; t; t = t->next) {
		if (t == timer) {
			return true;
    1f7a:	81 e0       	ldi	r24, 0x01	; 1
    1f7c:	08 95       	ret
    1f7e:	81 e0       	ldi	r24, 0x01	; 1
		}
	}
	return false;
}
    1f80:	08 95       	ret

00001f82 <SYS_TimerStart>:
}

/*************************************************************************//**
*****************************************************************************/
void SYS_TimerStart(SYS_Timer_t *timer)
{
    1f82:	cf 93       	push	r28
    1f84:	df 93       	push	r29
    1f86:	ec 01       	movw	r28, r24
	if (!SYS_TimerStarted(timer)) {
    1f88:	e2 df       	rcall	.-60     	; 0x1f4e <SYS_TimerStarted>
    1f8a:	81 11       	cpse	r24, r1
    1f8c:	02 c0       	rjmp	.+4      	; 0x1f92 <SYS_TimerStart+0x10>
		placeTimer(timer);
    1f8e:	ce 01       	movw	r24, r28
    1f90:	22 df       	rcall	.-444    	; 0x1dd6 <placeTimer>
	}
}
    1f92:	df 91       	pop	r29
    1f94:	cf 91       	pop	r28
    1f96:	08 95       	ret

00001f98 <SYS_TimerTaskHandler>:
}

/*************************************************************************//**
*****************************************************************************/
void SYS_TimerTaskHandler(void)
{
    1f98:	cf 92       	push	r12
    1f9a:	df 92       	push	r13
    1f9c:	ef 92       	push	r14
    1f9e:	ff 92       	push	r15
    1fa0:	0f 93       	push	r16
    1fa2:	1f 93       	push	r17
    1fa4:	cf 93       	push	r28
    1fa6:	df 93       	push	r29
    1fa8:	1f 92       	push	r1
    1faa:	cd b7       	in	r28, 0x3d	; 61
    1fac:	de b7       	in	r29, 0x3e	; 62
	uint32_t elapsed;
	uint8_t cnt;
	irqflags_t flags;

	if (0 == SysTimerIrqCount) {
    1fae:	80 91 95 09 	lds	r24, 0x0995	; 0x800995 <SysTimerIrqCount>
    1fb2:	88 23       	and	r24, r24
    1fb4:	09 f4       	brne	.+2      	; 0x1fb8 <SYS_TimerTaskHandler+0x20>
    1fb6:	53 c0       	rjmp	.+166    	; 0x205e <SYS_TimerTaskHandler+0xc6>

typedef uint8_t irqflags_t;

static inline irqflags_t cpu_irq_save(void)
{
	volatile irqflags_t flags = SREG;
    1fb8:	8f b7       	in	r24, 0x3f	; 63
    1fba:	89 83       	std	Y+1, r24	; 0x01
	cpu_irq_disable();
    1fbc:	f8 94       	cli
	return flags;
    1fbe:	89 81       	ldd	r24, Y+1	; 0x01
		return;
	}

	/* Enter a critical section */
	flags = cpu_irq_save();
	cnt = SysTimerIrqCount;
    1fc0:	c0 90 95 09 	lds	r12, 0x0995	; 0x800995 <SysTimerIrqCount>
	SysTimerIrqCount = 0;
    1fc4:	10 92 95 09 	sts	0x0995, r1	; 0x800995 <SysTimerIrqCount>
}

static inline void cpu_irq_restore(irqflags_t flags)
{
	barrier();
	SREG = flags;
    1fc8:	8f bf       	out	0x3f, r24	; 63
	/* Leave the critical section */
	cpu_irq_restore(flags);

	elapsed = cnt * SYS_TIMER_INTERVAL;
    1fca:	d1 2c       	mov	r13, r1
    1fcc:	e1 2c       	mov	r14, r1
    1fce:	f1 2c       	mov	r15, r1
    1fd0:	cc 0c       	add	r12, r12
    1fd2:	dd 1c       	adc	r13, r13
    1fd4:	ee 1c       	adc	r14, r14
    1fd6:	ff 1c       	adc	r15, r15
    1fd8:	d7 01       	movw	r26, r14
    1fda:	c6 01       	movw	r24, r12
    1fdc:	88 0f       	add	r24, r24
    1fde:	99 1f       	adc	r25, r25
    1fe0:	aa 1f       	adc	r26, r26
    1fe2:	bb 1f       	adc	r27, r27
    1fe4:	88 0f       	add	r24, r24
    1fe6:	99 1f       	adc	r25, r25
    1fe8:	aa 1f       	adc	r26, r26
    1fea:	bb 1f       	adc	r27, r27
    1fec:	c8 0e       	add	r12, r24
    1fee:	d9 1e       	adc	r13, r25
    1ff0:	ea 1e       	adc	r14, r26
    1ff2:	fb 1e       	adc	r15, r27

	while (timers && (timers->timeout <= elapsed)) {
    1ff4:	1b c0       	rjmp	.+54     	; 0x202c <SYS_TimerTaskHandler+0x94>
		SYS_Timer_t *timer = timers;

		elapsed -= timers->timeout;
    1ff6:	c8 1a       	sub	r12, r24
    1ff8:	d9 0a       	sbc	r13, r25
    1ffa:	ea 0a       	sbc	r14, r26
    1ffc:	fb 0a       	sbc	r15, r27
		timers = timers->next;
    1ffe:	d8 01       	movw	r26, r16
    2000:	8d 91       	ld	r24, X+
    2002:	9c 91       	ld	r25, X
    2004:	11 97       	sbiw	r26, 0x01	; 1
    2006:	90 93 0c 08 	sts	0x080C, r25	; 0x80080c <timers+0x1>
    200a:	80 93 0b 08 	sts	0x080B, r24	; 0x80080b <timers>
		if (SYS_TIMER_PERIODIC_MODE == timer->mode) {
    200e:	1a 96       	adiw	r26, 0x0a	; 10
    2010:	8c 91       	ld	r24, X
    2012:	81 30       	cpi	r24, 0x01	; 1
    2014:	11 f4       	brne	.+4      	; 0x201a <SYS_TimerTaskHandler+0x82>
			placeTimer(timer);
    2016:	c8 01       	movw	r24, r16
    2018:	de de       	rcall	.-580    	; 0x1dd6 <placeTimer>
		}

		if (timer->handler) {
    201a:	d8 01       	movw	r26, r16
    201c:	1b 96       	adiw	r26, 0x0b	; 11
    201e:	ed 91       	ld	r30, X+
    2020:	fc 91       	ld	r31, X
    2022:	1c 97       	sbiw	r26, 0x0c	; 12
    2024:	30 97       	sbiw	r30, 0x00	; 0
    2026:	11 f0       	breq	.+4      	; 0x202c <SYS_TimerTaskHandler+0x94>
			timer->handler(timer);
    2028:	c8 01       	movw	r24, r16
    202a:	19 95       	eicall
	/* Leave the critical section */
	cpu_irq_restore(flags);

	elapsed = cnt * SYS_TIMER_INTERVAL;

	while (timers && (timers->timeout <= elapsed)) {
    202c:	00 91 0b 08 	lds	r16, 0x080B	; 0x80080b <timers>
    2030:	10 91 0c 08 	lds	r17, 0x080C	; 0x80080c <timers+0x1>
    2034:	01 15       	cp	r16, r1
    2036:	11 05       	cpc	r17, r1
    2038:	91 f0       	breq	.+36     	; 0x205e <SYS_TimerTaskHandler+0xc6>
    203a:	f8 01       	movw	r30, r16
    203c:	82 81       	ldd	r24, Z+2	; 0x02
    203e:	93 81       	ldd	r25, Z+3	; 0x03
    2040:	a4 81       	ldd	r26, Z+4	; 0x04
    2042:	b5 81       	ldd	r27, Z+5	; 0x05
    2044:	c8 16       	cp	r12, r24
    2046:	d9 06       	cpc	r13, r25
    2048:	ea 06       	cpc	r14, r26
    204a:	fb 06       	cpc	r15, r27
    204c:	a0 f6       	brcc	.-88     	; 0x1ff6 <SYS_TimerTaskHandler+0x5e>
			timer->handler(timer);
		}
	}

	if (timers) {
		timers->timeout -= elapsed;
    204e:	8c 19       	sub	r24, r12
    2050:	9d 09       	sbc	r25, r13
    2052:	ae 09       	sbc	r26, r14
    2054:	bf 09       	sbc	r27, r15
    2056:	82 83       	std	Z+2, r24	; 0x02
    2058:	93 83       	std	Z+3, r25	; 0x03
    205a:	a4 83       	std	Z+4, r26	; 0x04
    205c:	b5 83       	std	Z+5, r27	; 0x05
	}
}
    205e:	0f 90       	pop	r0
    2060:	df 91       	pop	r29
    2062:	cf 91       	pop	r28
    2064:	1f 91       	pop	r17
    2066:	0f 91       	pop	r16
    2068:	ff 90       	pop	r15
    206a:	ef 90       	pop	r14
    206c:	df 90       	pop	r13
    206e:	cf 90       	pop	r12
    2070:	08 95       	ret

00002072 <tc_ovf_callback>:

/*! \brief  hw timer overflow callback
 */
void tc_ovf_callback(void)
{
	tmr_ovf_callback();
    2072:	0c 94 7b 01 	jmp	0x2f6	; 0x2f6 <tmr_ovf_callback>
    2076:	08 95       	ret

00002078 <tc_cca_callback>:

/*! \brief  hw timer compare callback
 */
void tc_cca_callback(void)
{
	tmr_cca_callback();
    2078:	0c 94 b3 01 	jmp	0x366	; 0x366 <tmr_cca_callback>
    207c:	08 95       	ret

0000207e <tmr_read_count>:
 * @return  count  in the register
 */
static inline uint16_t tc_read_count(volatile void *tc)
{
	if ((uintptr_t)tc == (uintptr_t)&TCCR1A) {
		return TCNT1;
    207e:	80 91 84 00 	lds	r24, 0x0084	; 0x800084 <__TEXT_REGION_LENGTH__+0x700084>
    2082:	90 91 85 00 	lds	r25, 0x0085	; 0x800085 <__TEXT_REGION_LENGTH__+0x700085>
/*! \brief  read the actual timer count from register
 */
uint16_t tmr_read_count(void)
{
	return tc_read_count(TIMER);
}
    2086:	08 95       	ret

00002088 <tmr_disable_cc_interrupt>:
 * @param tc Timer Address
 */
static inline void tc_disable_compa_int(volatile void *tc)
{
	if ((uintptr_t)tc == (uintptr_t)&TCCR1A) {
		TIMSK1 &= ~(1 << OCIE1A);
    2088:	ef e6       	ldi	r30, 0x6F	; 111
    208a:	f0 e0       	ldi	r31, 0x00	; 0
    208c:	80 81       	ld	r24, Z
    208e:	8d 7f       	andi	r24, 0xFD	; 253
    2090:	80 83       	st	Z, r24
 * @param tc Timer Address
 */
static inline void clear_compa_flag(volatile void *tc)
{
	if ((uintptr_t)tc == (uintptr_t)&TCCR1A) {
		TIFR1 |= (1 << OCF1A);
    2092:	b1 9a       	sbi	0x16, 1	; 22
    2094:	08 95       	ret

00002096 <tmr_enable_cc_interrupt>:
    2096:	b1 9a       	sbi	0x16, 1	; 22
 * @param tc Timer Address
 */
static inline void tc_enable_compa_int(volatile void *tc)
{
	if ((uintptr_t)tc == (uintptr_t)&TCCR1A) {
		TIMSK1 |= (1 << OCIE1A);
    2098:	ef e6       	ldi	r30, 0x6F	; 111
    209a:	f0 e0       	ldi	r31, 0x00	; 0
    209c:	80 81       	ld	r24, Z
    209e:	82 60       	ori	r24, 0x02	; 2
    20a0:	80 83       	st	Z, r24
    20a2:	08 95       	ret

000020a4 <tmr_disable_ovf_interrupt>:
 * @param tc Timer Address
 */
static inline void tc_enable_ovf_int(volatile void *tc)
{
	if ((uintptr_t)tc == (uintptr_t)&TCCR1A) {
		TIMSK1 |= (1 << TOIE1);
    20a4:	ef e6       	ldi	r30, 0x6F	; 111
    20a6:	f0 e0       	ldi	r31, 0x00	; 0
    20a8:	80 81       	ld	r24, Z
    20aa:	81 60       	ori	r24, 0x01	; 1
    20ac:	80 83       	st	Z, r24
 * @param tc Timer Address
 */
static inline void clear_ovf_flag(volatile void *tc)
{
	if ((uintptr_t)tc == (uintptr_t)&TCCR1A) {
		TIFR1 |= (1 << TOV1);
    20ae:	b0 9a       	sbi	0x16, 0	; 22
    20b0:	08 95       	ret

000020b2 <tmr_stop>:

/*! \brief  to stop the running timer
 */
void tmr_stop(void)
{
	tc_disable(TIMER);
    20b2:	80 e8       	ldi	r24, 0x80	; 128
    20b4:	90 e0       	ldi	r25, 0x00	; 0
    20b6:	82 c3       	rjmp	.+1796   	; 0x27bc <tc_disable>
    20b8:	08 95       	ret

000020ba <tmr_write_cmpreg>:
 */
static inline void tc_write_cc(volatile void *tc,
		enum tc_cc_channel_t channel_index, uint16_t value)
{
	uint8_t *reg = (uint8_t *)tc;
	*(reg + channel_index + 1) |=  (value >> 8);
    20ba:	e9 e8       	ldi	r30, 0x89	; 137
    20bc:	f0 e0       	ldi	r31, 0x00	; 0
    20be:	20 81       	ld	r18, Z
    20c0:	92 2b       	or	r25, r18
    20c2:	90 83       	st	Z, r25
	*(reg + channel_index) |=  value;
    20c4:	e8 e8       	ldi	r30, 0x88	; 136
    20c6:	f0 e0       	ldi	r31, 0x00	; 0
    20c8:	90 81       	ld	r25, Z
    20ca:	89 2b       	or	r24, r25
    20cc:	80 83       	st	Z, r24
    20ce:	08 95       	ret

000020d0 <save_cpu_interrupt>:
}

/*! \brief  to save current interrupts status
 */
uint8_t save_cpu_interrupt(void)
{
    20d0:	cf 93       	push	r28
    20d2:	df 93       	push	r29
    20d4:	1f 92       	push	r1
    20d6:	cd b7       	in	r28, 0x3d	; 61
    20d8:	de b7       	in	r29, 0x3e	; 62

typedef uint8_t irqflags_t;

static inline irqflags_t cpu_irq_save(void)
{
	volatile irqflags_t flags = SREG;
    20da:	8f b7       	in	r24, 0x3f	; 63
    20dc:	89 83       	std	Y+1, r24	; 0x01
	cpu_irq_disable();
    20de:	f8 94       	cli
	return flags;
    20e0:	89 81       	ldd	r24, Y+1	; 0x01
	return cpu_irq_save();
}
    20e2:	0f 90       	pop	r0
    20e4:	df 91       	pop	r29
    20e6:	cf 91       	pop	r28
    20e8:	08 95       	ret

000020ea <restore_cpu_interrupt>:
}

static inline void cpu_irq_restore(irqflags_t flags)
{
	barrier();
	SREG = flags;
    20ea:	8f bf       	out	0x3f, r24	; 63
    20ec:	08 95       	ret

000020ee <tmr_init>:
}

/*! \brief  to initialiaze hw timer
 */
uint8_t tmr_init(void)
{
    20ee:	cf 93       	push	r28
    20f0:	df 93       	push	r29
	uint8_t timer_multiplier;

	tc_enable(TIMER);
    20f2:	80 e8       	ldi	r24, 0x80	; 128
    20f4:	90 e0       	ldi	r25, 0x00	; 0
    20f6:	eb d2       	rcall	.+1494   	; 0x26ce <tc_enable>

	tc_set_overflow_interrupt_callback(TIMER, tc_ovf_callback);
    20f8:	69 e3       	ldi	r22, 0x39	; 57
    20fa:	70 e1       	ldi	r23, 0x10	; 16
    20fc:	80 e8       	ldi	r24, 0x80	; 128
    20fe:	90 e0       	ldi	r25, 0x00	; 0
    2100:	d4 d3       	rcall	.+1960   	; 0x28aa <tc_set_overflow_interrupt_callback>
 * @param tc Timer Address
 */
static inline void tc_enable_ovf_int(volatile void *tc)
{
	if ((uintptr_t)tc == (uintptr_t)&TCCR1A) {
		TIMSK1 |= (1 << TOIE1);
    2102:	cf e6       	ldi	r28, 0x6F	; 111
    2104:	d0 e0       	ldi	r29, 0x00	; 0
    2106:	88 81       	ld	r24, Y
    2108:	81 60       	ori	r24, 0x01	; 1
    210a:	88 83       	st	Y, r24
 */
static void configure_tc_callback(volatile void *timer)
{
	if ((&TCCR1A == timer) || (&TCCR3A == timer) ||
			(&TCCR4A == timer) || (&TCCR5A == timer)) {
		tc_set_compa_interrupt_callback(TIMER, tc_cca_callback);
    210c:	6c e3       	ldi	r22, 0x3C	; 60
    210e:	70 e1       	ldi	r23, 0x10	; 16
    2110:	80 e8       	ldi	r24, 0x80	; 128
    2112:	90 e0       	ldi	r25, 0x00	; 0
    2114:	ea d3       	rcall	.+2004   	; 0x28ea <tc_set_compa_interrupt_callback>
 * @param tc Timer Address
 */
static inline void tc_disable_compa_int(volatile void *tc)
{
	if ((uintptr_t)tc == (uintptr_t)&TCCR1A) {
		TIMSK1 &= ~(1 << OCIE1A);
    2116:	88 81       	ld	r24, Y
    2118:	8d 7f       	andi	r24, 0xFD	; 253
    211a:	88 83       	st	Y, r24
 */
static inline void tc_write_clock_source(volatile void *tc,
		TC_CLKSEL_t TC_CLKSEL_enum)
{
	if ((uintptr_t)tc == (uintptr_t)&TCCR1A) {
		TCCR1B |=  TC_CLKSEL_enum;
    211c:	e1 e8       	ldi	r30, 0x81	; 129
    211e:	f0 e0       	ldi	r31, 0x00	; 0
    2120:	80 81       	ld	r24, Z
    2122:	81 60       	ori	r24, 0x01	; 1
    2124:	80 83       	st	Z, r24
	tc_write_clock_source(TIMER, TC_CLKSEL_DIV1_gc);

	timer_multiplier = sysclk_get_peripheral_bus_hz(TIMER) / DEF_1MHZ;

	return timer_multiplier;
}
    2126:	80 e1       	ldi	r24, 0x10	; 16
    2128:	df 91       	pop	r29
    212a:	cf 91       	pop	r28
    212c:	08 95       	ret

0000212e <__vector_20>:
/**
 * \internal
 * \brief Interrupt handler for Timer Counter  overflow
 */
ISR(TIMER1_OVF_vect)
{
    212e:	1f 92       	push	r1
    2130:	0f 92       	push	r0
    2132:	0f b6       	in	r0, 0x3f	; 63
    2134:	0f 92       	push	r0
    2136:	11 24       	eor	r1, r1
    2138:	0b b6       	in	r0, 0x3b	; 59
    213a:	0f 92       	push	r0
    213c:	2f 93       	push	r18
    213e:	3f 93       	push	r19
    2140:	4f 93       	push	r20
    2142:	5f 93       	push	r21
    2144:	6f 93       	push	r22
    2146:	7f 93       	push	r23
    2148:	8f 93       	push	r24
    214a:	9f 93       	push	r25
    214c:	af 93       	push	r26
    214e:	bf 93       	push	r27
    2150:	ef 93       	push	r30
    2152:	ff 93       	push	r31
	if (tc_tccr1_ovf_callback) {
    2154:	e0 91 2b 08 	lds	r30, 0x082B	; 0x80082b <tc_tccr1_ovf_callback>
    2158:	f0 91 2c 08 	lds	r31, 0x082C	; 0x80082c <tc_tccr1_ovf_callback+0x1>
    215c:	30 97       	sbiw	r30, 0x00	; 0
    215e:	09 f0       	breq	.+2      	; 0x2162 <__vector_20+0x34>
		tc_tccr1_ovf_callback();
    2160:	19 95       	eicall
	}
}
    2162:	ff 91       	pop	r31
    2164:	ef 91       	pop	r30
    2166:	bf 91       	pop	r27
    2168:	af 91       	pop	r26
    216a:	9f 91       	pop	r25
    216c:	8f 91       	pop	r24
    216e:	7f 91       	pop	r23
    2170:	6f 91       	pop	r22
    2172:	5f 91       	pop	r21
    2174:	4f 91       	pop	r20
    2176:	3f 91       	pop	r19
    2178:	2f 91       	pop	r18
    217a:	0f 90       	pop	r0
    217c:	0b be       	out	0x3b, r0	; 59
    217e:	0f 90       	pop	r0
    2180:	0f be       	out	0x3f, r0	; 63
    2182:	0f 90       	pop	r0
    2184:	1f 90       	pop	r1
    2186:	18 95       	reti

00002188 <__vector_17>:

/**
 * \brief Interrupt handler for Timer Counter  Compare Match in Channel A
 */
ISR(TIMER1_COMPA_vect)
{
    2188:	1f 92       	push	r1
    218a:	0f 92       	push	r0
    218c:	0f b6       	in	r0, 0x3f	; 63
    218e:	0f 92       	push	r0
    2190:	11 24       	eor	r1, r1
    2192:	0b b6       	in	r0, 0x3b	; 59
    2194:	0f 92       	push	r0
    2196:	2f 93       	push	r18
    2198:	3f 93       	push	r19
    219a:	4f 93       	push	r20
    219c:	5f 93       	push	r21
    219e:	6f 93       	push	r22
    21a0:	7f 93       	push	r23
    21a2:	8f 93       	push	r24
    21a4:	9f 93       	push	r25
    21a6:	af 93       	push	r26
    21a8:	bf 93       	push	r27
    21aa:	ef 93       	push	r30
    21ac:	ff 93       	push	r31
	if (tc_tccr1_compa_callback) {
    21ae:	e0 91 29 08 	lds	r30, 0x0829	; 0x800829 <tc_tccr1_compa_callback>
    21b2:	f0 91 2a 08 	lds	r31, 0x082A	; 0x80082a <tc_tccr1_compa_callback+0x1>
    21b6:	30 97       	sbiw	r30, 0x00	; 0
    21b8:	09 f0       	breq	.+2      	; 0x21bc <__vector_17+0x34>
		tc_tccr1_compa_callback();
    21ba:	19 95       	eicall
	}
}
    21bc:	ff 91       	pop	r31
    21be:	ef 91       	pop	r30
    21c0:	bf 91       	pop	r27
    21c2:	af 91       	pop	r26
    21c4:	9f 91       	pop	r25
    21c6:	8f 91       	pop	r24
    21c8:	7f 91       	pop	r23
    21ca:	6f 91       	pop	r22
    21cc:	5f 91       	pop	r21
    21ce:	4f 91       	pop	r20
    21d0:	3f 91       	pop	r19
    21d2:	2f 91       	pop	r18
    21d4:	0f 90       	pop	r0
    21d6:	0b be       	out	0x3b, r0	; 59
    21d8:	0f 90       	pop	r0
    21da:	0f be       	out	0x3f, r0	; 63
    21dc:	0f 90       	pop	r0
    21de:	1f 90       	pop	r1
    21e0:	18 95       	reti

000021e2 <__vector_18>:

/**
 * \brief Interrupt handler for Timer Counter  Compare Match in Channel B
 */
ISR(TIMER1_COMPB_vect)
{
    21e2:	1f 92       	push	r1
    21e4:	0f 92       	push	r0
    21e6:	0f b6       	in	r0, 0x3f	; 63
    21e8:	0f 92       	push	r0
    21ea:	11 24       	eor	r1, r1
    21ec:	0b b6       	in	r0, 0x3b	; 59
    21ee:	0f 92       	push	r0
    21f0:	2f 93       	push	r18
    21f2:	3f 93       	push	r19
    21f4:	4f 93       	push	r20
    21f6:	5f 93       	push	r21
    21f8:	6f 93       	push	r22
    21fa:	7f 93       	push	r23
    21fc:	8f 93       	push	r24
    21fe:	9f 93       	push	r25
    2200:	af 93       	push	r26
    2202:	bf 93       	push	r27
    2204:	ef 93       	push	r30
    2206:	ff 93       	push	r31
	if (tc_tccr1_compb_callback) {
    2208:	e0 91 27 08 	lds	r30, 0x0827	; 0x800827 <tc_tccr1_compb_callback>
    220c:	f0 91 28 08 	lds	r31, 0x0828	; 0x800828 <tc_tccr1_compb_callback+0x1>
    2210:	30 97       	sbiw	r30, 0x00	; 0
    2212:	09 f0       	breq	.+2      	; 0x2216 <__vector_18+0x34>
		tc_tccr1_compb_callback();
    2214:	19 95       	eicall
	}
}
    2216:	ff 91       	pop	r31
    2218:	ef 91       	pop	r30
    221a:	bf 91       	pop	r27
    221c:	af 91       	pop	r26
    221e:	9f 91       	pop	r25
    2220:	8f 91       	pop	r24
    2222:	7f 91       	pop	r23
    2224:	6f 91       	pop	r22
    2226:	5f 91       	pop	r21
    2228:	4f 91       	pop	r20
    222a:	3f 91       	pop	r19
    222c:	2f 91       	pop	r18
    222e:	0f 90       	pop	r0
    2230:	0b be       	out	0x3b, r0	; 59
    2232:	0f 90       	pop	r0
    2234:	0f be       	out	0x3f, r0	; 63
    2236:	0f 90       	pop	r0
    2238:	1f 90       	pop	r1
    223a:	18 95       	reti

0000223c <__vector_19>:

/**
 * \brief Interrupt handler for Timer Counter  Compare Match in Channel C
 */
ISR(TIMER1_COMPC_vect)
{
    223c:	1f 92       	push	r1
    223e:	0f 92       	push	r0
    2240:	0f b6       	in	r0, 0x3f	; 63
    2242:	0f 92       	push	r0
    2244:	11 24       	eor	r1, r1
    2246:	0b b6       	in	r0, 0x3b	; 59
    2248:	0f 92       	push	r0
    224a:	2f 93       	push	r18
    224c:	3f 93       	push	r19
    224e:	4f 93       	push	r20
    2250:	5f 93       	push	r21
    2252:	6f 93       	push	r22
    2254:	7f 93       	push	r23
    2256:	8f 93       	push	r24
    2258:	9f 93       	push	r25
    225a:	af 93       	push	r26
    225c:	bf 93       	push	r27
    225e:	ef 93       	push	r30
    2260:	ff 93       	push	r31
	if (tc_tccr1_compc_callback) {
    2262:	e0 91 25 08 	lds	r30, 0x0825	; 0x800825 <tc_tccr1_compc_callback>
    2266:	f0 91 26 08 	lds	r31, 0x0826	; 0x800826 <tc_tccr1_compc_callback+0x1>
    226a:	30 97       	sbiw	r30, 0x00	; 0
    226c:	09 f0       	breq	.+2      	; 0x2270 <__vector_19+0x34>
		tc_tccr1_compc_callback();
    226e:	19 95       	eicall
	}
}
    2270:	ff 91       	pop	r31
    2272:	ef 91       	pop	r30
    2274:	bf 91       	pop	r27
    2276:	af 91       	pop	r26
    2278:	9f 91       	pop	r25
    227a:	8f 91       	pop	r24
    227c:	7f 91       	pop	r23
    227e:	6f 91       	pop	r22
    2280:	5f 91       	pop	r21
    2282:	4f 91       	pop	r20
    2284:	3f 91       	pop	r19
    2286:	2f 91       	pop	r18
    2288:	0f 90       	pop	r0
    228a:	0b be       	out	0x3b, r0	; 59
    228c:	0f 90       	pop	r0
    228e:	0f be       	out	0x3f, r0	; 63
    2290:	0f 90       	pop	r0
    2292:	1f 90       	pop	r1
    2294:	18 95       	reti

00002296 <__vector_35>:
static tc_callback_t tc_tccr3_compa_callback;
static tc_callback_t tc_tccr3_compb_callback;
static tc_callback_t tc_tccr3_compc_callback;

ISR(TIMER3_OVF_vect)
{
    2296:	1f 92       	push	r1
    2298:	0f 92       	push	r0
    229a:	0f b6       	in	r0, 0x3f	; 63
    229c:	0f 92       	push	r0
    229e:	11 24       	eor	r1, r1
    22a0:	0b b6       	in	r0, 0x3b	; 59
    22a2:	0f 92       	push	r0
    22a4:	2f 93       	push	r18
    22a6:	3f 93       	push	r19
    22a8:	4f 93       	push	r20
    22aa:	5f 93       	push	r21
    22ac:	6f 93       	push	r22
    22ae:	7f 93       	push	r23
    22b0:	8f 93       	push	r24
    22b2:	9f 93       	push	r25
    22b4:	af 93       	push	r26
    22b6:	bf 93       	push	r27
    22b8:	ef 93       	push	r30
    22ba:	ff 93       	push	r31
	if (tc_tccr3_ovf_callback) {
    22bc:	e0 91 23 08 	lds	r30, 0x0823	; 0x800823 <tc_tccr3_ovf_callback>
    22c0:	f0 91 24 08 	lds	r31, 0x0824	; 0x800824 <tc_tccr3_ovf_callback+0x1>
    22c4:	30 97       	sbiw	r30, 0x00	; 0
    22c6:	09 f0       	breq	.+2      	; 0x22ca <__vector_35+0x34>
		tc_tccr3_ovf_callback();
    22c8:	19 95       	eicall
	}
}
    22ca:	ff 91       	pop	r31
    22cc:	ef 91       	pop	r30
    22ce:	bf 91       	pop	r27
    22d0:	af 91       	pop	r26
    22d2:	9f 91       	pop	r25
    22d4:	8f 91       	pop	r24
    22d6:	7f 91       	pop	r23
    22d8:	6f 91       	pop	r22
    22da:	5f 91       	pop	r21
    22dc:	4f 91       	pop	r20
    22de:	3f 91       	pop	r19
    22e0:	2f 91       	pop	r18
    22e2:	0f 90       	pop	r0
    22e4:	0b be       	out	0x3b, r0	; 59
    22e6:	0f 90       	pop	r0
    22e8:	0f be       	out	0x3f, r0	; 63
    22ea:	0f 90       	pop	r0
    22ec:	1f 90       	pop	r1
    22ee:	18 95       	reti

000022f0 <__vector_32>:

ISR(TIMER3_COMPA_vect)
{
    22f0:	1f 92       	push	r1
    22f2:	0f 92       	push	r0
    22f4:	0f b6       	in	r0, 0x3f	; 63
    22f6:	0f 92       	push	r0
    22f8:	11 24       	eor	r1, r1
    22fa:	0b b6       	in	r0, 0x3b	; 59
    22fc:	0f 92       	push	r0
    22fe:	2f 93       	push	r18
    2300:	3f 93       	push	r19
    2302:	4f 93       	push	r20
    2304:	5f 93       	push	r21
    2306:	6f 93       	push	r22
    2308:	7f 93       	push	r23
    230a:	8f 93       	push	r24
    230c:	9f 93       	push	r25
    230e:	af 93       	push	r26
    2310:	bf 93       	push	r27
    2312:	ef 93       	push	r30
    2314:	ff 93       	push	r31
	if (tc_tccr3_compa_callback) {
    2316:	e0 91 21 08 	lds	r30, 0x0821	; 0x800821 <tc_tccr3_compa_callback>
    231a:	f0 91 22 08 	lds	r31, 0x0822	; 0x800822 <tc_tccr3_compa_callback+0x1>
    231e:	30 97       	sbiw	r30, 0x00	; 0
    2320:	09 f0       	breq	.+2      	; 0x2324 <__vector_32+0x34>
		tc_tccr3_compa_callback();
    2322:	19 95       	eicall
	}
}
    2324:	ff 91       	pop	r31
    2326:	ef 91       	pop	r30
    2328:	bf 91       	pop	r27
    232a:	af 91       	pop	r26
    232c:	9f 91       	pop	r25
    232e:	8f 91       	pop	r24
    2330:	7f 91       	pop	r23
    2332:	6f 91       	pop	r22
    2334:	5f 91       	pop	r21
    2336:	4f 91       	pop	r20
    2338:	3f 91       	pop	r19
    233a:	2f 91       	pop	r18
    233c:	0f 90       	pop	r0
    233e:	0b be       	out	0x3b, r0	; 59
    2340:	0f 90       	pop	r0
    2342:	0f be       	out	0x3f, r0	; 63
    2344:	0f 90       	pop	r0
    2346:	1f 90       	pop	r1
    2348:	18 95       	reti

0000234a <__vector_33>:

ISR(TIMER3_COMPB_vect)
{
    234a:	1f 92       	push	r1
    234c:	0f 92       	push	r0
    234e:	0f b6       	in	r0, 0x3f	; 63
    2350:	0f 92       	push	r0
    2352:	11 24       	eor	r1, r1
    2354:	0b b6       	in	r0, 0x3b	; 59
    2356:	0f 92       	push	r0
    2358:	2f 93       	push	r18
    235a:	3f 93       	push	r19
    235c:	4f 93       	push	r20
    235e:	5f 93       	push	r21
    2360:	6f 93       	push	r22
    2362:	7f 93       	push	r23
    2364:	8f 93       	push	r24
    2366:	9f 93       	push	r25
    2368:	af 93       	push	r26
    236a:	bf 93       	push	r27
    236c:	ef 93       	push	r30
    236e:	ff 93       	push	r31
	if (tc_tccr3_compb_callback) {
    2370:	e0 91 1f 08 	lds	r30, 0x081F	; 0x80081f <tc_tccr3_compb_callback>
    2374:	f0 91 20 08 	lds	r31, 0x0820	; 0x800820 <tc_tccr3_compb_callback+0x1>
    2378:	30 97       	sbiw	r30, 0x00	; 0
    237a:	09 f0       	breq	.+2      	; 0x237e <__vector_33+0x34>
		tc_tccr3_compb_callback();
    237c:	19 95       	eicall
	}
}
    237e:	ff 91       	pop	r31
    2380:	ef 91       	pop	r30
    2382:	bf 91       	pop	r27
    2384:	af 91       	pop	r26
    2386:	9f 91       	pop	r25
    2388:	8f 91       	pop	r24
    238a:	7f 91       	pop	r23
    238c:	6f 91       	pop	r22
    238e:	5f 91       	pop	r21
    2390:	4f 91       	pop	r20
    2392:	3f 91       	pop	r19
    2394:	2f 91       	pop	r18
    2396:	0f 90       	pop	r0
    2398:	0b be       	out	0x3b, r0	; 59
    239a:	0f 90       	pop	r0
    239c:	0f be       	out	0x3f, r0	; 63
    239e:	0f 90       	pop	r0
    23a0:	1f 90       	pop	r1
    23a2:	18 95       	reti

000023a4 <__vector_34>:

ISR(TIMER3_COMPC_vect)
{
    23a4:	1f 92       	push	r1
    23a6:	0f 92       	push	r0
    23a8:	0f b6       	in	r0, 0x3f	; 63
    23aa:	0f 92       	push	r0
    23ac:	11 24       	eor	r1, r1
    23ae:	0b b6       	in	r0, 0x3b	; 59
    23b0:	0f 92       	push	r0
    23b2:	2f 93       	push	r18
    23b4:	3f 93       	push	r19
    23b6:	4f 93       	push	r20
    23b8:	5f 93       	push	r21
    23ba:	6f 93       	push	r22
    23bc:	7f 93       	push	r23
    23be:	8f 93       	push	r24
    23c0:	9f 93       	push	r25
    23c2:	af 93       	push	r26
    23c4:	bf 93       	push	r27
    23c6:	ef 93       	push	r30
    23c8:	ff 93       	push	r31
	if (tc_tccr3_compc_callback) {
    23ca:	e0 91 1d 08 	lds	r30, 0x081D	; 0x80081d <tc_tccr3_compc_callback>
    23ce:	f0 91 1e 08 	lds	r31, 0x081E	; 0x80081e <tc_tccr3_compc_callback+0x1>
    23d2:	30 97       	sbiw	r30, 0x00	; 0
    23d4:	09 f0       	breq	.+2      	; 0x23d8 <__vector_34+0x34>
		tc_tccr3_compc_callback();
    23d6:	19 95       	eicall
	}
}
    23d8:	ff 91       	pop	r31
    23da:	ef 91       	pop	r30
    23dc:	bf 91       	pop	r27
    23de:	af 91       	pop	r26
    23e0:	9f 91       	pop	r25
    23e2:	8f 91       	pop	r24
    23e4:	7f 91       	pop	r23
    23e6:	6f 91       	pop	r22
    23e8:	5f 91       	pop	r21
    23ea:	4f 91       	pop	r20
    23ec:	3f 91       	pop	r19
    23ee:	2f 91       	pop	r18
    23f0:	0f 90       	pop	r0
    23f2:	0b be       	out	0x3b, r0	; 59
    23f4:	0f 90       	pop	r0
    23f6:	0f be       	out	0x3f, r0	; 63
    23f8:	0f 90       	pop	r0
    23fa:	1f 90       	pop	r1
    23fc:	18 95       	reti

000023fe <__vector_45>:
static tc_callback_t tc_tccr4_compa_callback;
static tc_callback_t tc_tccr4_compb_callback;
static tc_callback_t tc_tccr4_compc_callback;

ISR(TIMER4_OVF_vect)
{
    23fe:	1f 92       	push	r1
    2400:	0f 92       	push	r0
    2402:	0f b6       	in	r0, 0x3f	; 63
    2404:	0f 92       	push	r0
    2406:	11 24       	eor	r1, r1
    2408:	0b b6       	in	r0, 0x3b	; 59
    240a:	0f 92       	push	r0
    240c:	2f 93       	push	r18
    240e:	3f 93       	push	r19
    2410:	4f 93       	push	r20
    2412:	5f 93       	push	r21
    2414:	6f 93       	push	r22
    2416:	7f 93       	push	r23
    2418:	8f 93       	push	r24
    241a:	9f 93       	push	r25
    241c:	af 93       	push	r26
    241e:	bf 93       	push	r27
    2420:	ef 93       	push	r30
    2422:	ff 93       	push	r31
	if (tc_tccr4_ovf_callback) {
    2424:	e0 91 1b 08 	lds	r30, 0x081B	; 0x80081b <tc_tccr4_ovf_callback>
    2428:	f0 91 1c 08 	lds	r31, 0x081C	; 0x80081c <tc_tccr4_ovf_callback+0x1>
    242c:	30 97       	sbiw	r30, 0x00	; 0
    242e:	09 f0       	breq	.+2      	; 0x2432 <__vector_45+0x34>
		tc_tccr4_ovf_callback();
    2430:	19 95       	eicall
	}
}
    2432:	ff 91       	pop	r31
    2434:	ef 91       	pop	r30
    2436:	bf 91       	pop	r27
    2438:	af 91       	pop	r26
    243a:	9f 91       	pop	r25
    243c:	8f 91       	pop	r24
    243e:	7f 91       	pop	r23
    2440:	6f 91       	pop	r22
    2442:	5f 91       	pop	r21
    2444:	4f 91       	pop	r20
    2446:	3f 91       	pop	r19
    2448:	2f 91       	pop	r18
    244a:	0f 90       	pop	r0
    244c:	0b be       	out	0x3b, r0	; 59
    244e:	0f 90       	pop	r0
    2450:	0f be       	out	0x3f, r0	; 63
    2452:	0f 90       	pop	r0
    2454:	1f 90       	pop	r1
    2456:	18 95       	reti

00002458 <__vector_42>:

ISR(TIMER4_COMPA_vect)
{
    2458:	1f 92       	push	r1
    245a:	0f 92       	push	r0
    245c:	0f b6       	in	r0, 0x3f	; 63
    245e:	0f 92       	push	r0
    2460:	11 24       	eor	r1, r1
    2462:	0b b6       	in	r0, 0x3b	; 59
    2464:	0f 92       	push	r0
    2466:	2f 93       	push	r18
    2468:	3f 93       	push	r19
    246a:	4f 93       	push	r20
    246c:	5f 93       	push	r21
    246e:	6f 93       	push	r22
    2470:	7f 93       	push	r23
    2472:	8f 93       	push	r24
    2474:	9f 93       	push	r25
    2476:	af 93       	push	r26
    2478:	bf 93       	push	r27
    247a:	ef 93       	push	r30
    247c:	ff 93       	push	r31
	if (tc_tccr4_compa_callback) {
    247e:	e0 91 19 08 	lds	r30, 0x0819	; 0x800819 <tc_tccr4_compa_callback>
    2482:	f0 91 1a 08 	lds	r31, 0x081A	; 0x80081a <tc_tccr4_compa_callback+0x1>
    2486:	30 97       	sbiw	r30, 0x00	; 0
    2488:	09 f0       	breq	.+2      	; 0x248c <__vector_42+0x34>
		tc_tccr4_compa_callback();
    248a:	19 95       	eicall
	}
}
    248c:	ff 91       	pop	r31
    248e:	ef 91       	pop	r30
    2490:	bf 91       	pop	r27
    2492:	af 91       	pop	r26
    2494:	9f 91       	pop	r25
    2496:	8f 91       	pop	r24
    2498:	7f 91       	pop	r23
    249a:	6f 91       	pop	r22
    249c:	5f 91       	pop	r21
    249e:	4f 91       	pop	r20
    24a0:	3f 91       	pop	r19
    24a2:	2f 91       	pop	r18
    24a4:	0f 90       	pop	r0
    24a6:	0b be       	out	0x3b, r0	; 59
    24a8:	0f 90       	pop	r0
    24aa:	0f be       	out	0x3f, r0	; 63
    24ac:	0f 90       	pop	r0
    24ae:	1f 90       	pop	r1
    24b0:	18 95       	reti

000024b2 <__vector_43>:

ISR(TIMER4_COMPB_vect)
{
    24b2:	1f 92       	push	r1
    24b4:	0f 92       	push	r0
    24b6:	0f b6       	in	r0, 0x3f	; 63
    24b8:	0f 92       	push	r0
    24ba:	11 24       	eor	r1, r1
    24bc:	0b b6       	in	r0, 0x3b	; 59
    24be:	0f 92       	push	r0
    24c0:	2f 93       	push	r18
    24c2:	3f 93       	push	r19
    24c4:	4f 93       	push	r20
    24c6:	5f 93       	push	r21
    24c8:	6f 93       	push	r22
    24ca:	7f 93       	push	r23
    24cc:	8f 93       	push	r24
    24ce:	9f 93       	push	r25
    24d0:	af 93       	push	r26
    24d2:	bf 93       	push	r27
    24d4:	ef 93       	push	r30
    24d6:	ff 93       	push	r31
	if (tc_tccr4_compb_callback) {
    24d8:	e0 91 17 08 	lds	r30, 0x0817	; 0x800817 <tc_tccr4_compb_callback>
    24dc:	f0 91 18 08 	lds	r31, 0x0818	; 0x800818 <tc_tccr4_compb_callback+0x1>
    24e0:	30 97       	sbiw	r30, 0x00	; 0
    24e2:	09 f0       	breq	.+2      	; 0x24e6 <__vector_43+0x34>
		tc_tccr4_compb_callback();
    24e4:	19 95       	eicall
	}
}
    24e6:	ff 91       	pop	r31
    24e8:	ef 91       	pop	r30
    24ea:	bf 91       	pop	r27
    24ec:	af 91       	pop	r26
    24ee:	9f 91       	pop	r25
    24f0:	8f 91       	pop	r24
    24f2:	7f 91       	pop	r23
    24f4:	6f 91       	pop	r22
    24f6:	5f 91       	pop	r21
    24f8:	4f 91       	pop	r20
    24fa:	3f 91       	pop	r19
    24fc:	2f 91       	pop	r18
    24fe:	0f 90       	pop	r0
    2500:	0b be       	out	0x3b, r0	; 59
    2502:	0f 90       	pop	r0
    2504:	0f be       	out	0x3f, r0	; 63
    2506:	0f 90       	pop	r0
    2508:	1f 90       	pop	r1
    250a:	18 95       	reti

0000250c <__vector_44>:

ISR(TIMER4_COMPC_vect)
{
    250c:	1f 92       	push	r1
    250e:	0f 92       	push	r0
    2510:	0f b6       	in	r0, 0x3f	; 63
    2512:	0f 92       	push	r0
    2514:	11 24       	eor	r1, r1
    2516:	0b b6       	in	r0, 0x3b	; 59
    2518:	0f 92       	push	r0
    251a:	2f 93       	push	r18
    251c:	3f 93       	push	r19
    251e:	4f 93       	push	r20
    2520:	5f 93       	push	r21
    2522:	6f 93       	push	r22
    2524:	7f 93       	push	r23
    2526:	8f 93       	push	r24
    2528:	9f 93       	push	r25
    252a:	af 93       	push	r26
    252c:	bf 93       	push	r27
    252e:	ef 93       	push	r30
    2530:	ff 93       	push	r31
	if (tc_tccr4_compc_callback) {
    2532:	e0 91 15 08 	lds	r30, 0x0815	; 0x800815 <tc_tccr4_compc_callback>
    2536:	f0 91 16 08 	lds	r31, 0x0816	; 0x800816 <tc_tccr4_compc_callback+0x1>
    253a:	30 97       	sbiw	r30, 0x00	; 0
    253c:	09 f0       	breq	.+2      	; 0x2540 <__vector_44+0x34>
		tc_tccr4_compc_callback();
    253e:	19 95       	eicall
	}
}
    2540:	ff 91       	pop	r31
    2542:	ef 91       	pop	r30
    2544:	bf 91       	pop	r27
    2546:	af 91       	pop	r26
    2548:	9f 91       	pop	r25
    254a:	8f 91       	pop	r24
    254c:	7f 91       	pop	r23
    254e:	6f 91       	pop	r22
    2550:	5f 91       	pop	r21
    2552:	4f 91       	pop	r20
    2554:	3f 91       	pop	r19
    2556:	2f 91       	pop	r18
    2558:	0f 90       	pop	r0
    255a:	0b be       	out	0x3b, r0	; 59
    255c:	0f 90       	pop	r0
    255e:	0f be       	out	0x3f, r0	; 63
    2560:	0f 90       	pop	r0
    2562:	1f 90       	pop	r1
    2564:	18 95       	reti

00002566 <__vector_50>:
static tc_callback_t tc_tccr5_compa_callback;
static tc_callback_t tc_tccr5_compb_callback;
static tc_callback_t tc_tccr5_compc_callback;

ISR(TIMER5_OVF_vect)
{
    2566:	1f 92       	push	r1
    2568:	0f 92       	push	r0
    256a:	0f b6       	in	r0, 0x3f	; 63
    256c:	0f 92       	push	r0
    256e:	11 24       	eor	r1, r1
    2570:	0b b6       	in	r0, 0x3b	; 59
    2572:	0f 92       	push	r0
    2574:	2f 93       	push	r18
    2576:	3f 93       	push	r19
    2578:	4f 93       	push	r20
    257a:	5f 93       	push	r21
    257c:	6f 93       	push	r22
    257e:	7f 93       	push	r23
    2580:	8f 93       	push	r24
    2582:	9f 93       	push	r25
    2584:	af 93       	push	r26
    2586:	bf 93       	push	r27
    2588:	ef 93       	push	r30
    258a:	ff 93       	push	r31
	if (tc_tccr5_ovf_callback) {
    258c:	e0 91 13 08 	lds	r30, 0x0813	; 0x800813 <tc_tccr5_ovf_callback>
    2590:	f0 91 14 08 	lds	r31, 0x0814	; 0x800814 <tc_tccr5_ovf_callback+0x1>
    2594:	30 97       	sbiw	r30, 0x00	; 0
    2596:	09 f0       	breq	.+2      	; 0x259a <__vector_50+0x34>
		tc_tccr5_ovf_callback();
    2598:	19 95       	eicall
	}
}
    259a:	ff 91       	pop	r31
    259c:	ef 91       	pop	r30
    259e:	bf 91       	pop	r27
    25a0:	af 91       	pop	r26
    25a2:	9f 91       	pop	r25
    25a4:	8f 91       	pop	r24
    25a6:	7f 91       	pop	r23
    25a8:	6f 91       	pop	r22
    25aa:	5f 91       	pop	r21
    25ac:	4f 91       	pop	r20
    25ae:	3f 91       	pop	r19
    25b0:	2f 91       	pop	r18
    25b2:	0f 90       	pop	r0
    25b4:	0b be       	out	0x3b, r0	; 59
    25b6:	0f 90       	pop	r0
    25b8:	0f be       	out	0x3f, r0	; 63
    25ba:	0f 90       	pop	r0
    25bc:	1f 90       	pop	r1
    25be:	18 95       	reti

000025c0 <__vector_47>:

ISR(TIMER5_COMPA_vect)
{
    25c0:	1f 92       	push	r1
    25c2:	0f 92       	push	r0
    25c4:	0f b6       	in	r0, 0x3f	; 63
    25c6:	0f 92       	push	r0
    25c8:	11 24       	eor	r1, r1
    25ca:	0b b6       	in	r0, 0x3b	; 59
    25cc:	0f 92       	push	r0
    25ce:	2f 93       	push	r18
    25d0:	3f 93       	push	r19
    25d2:	4f 93       	push	r20
    25d4:	5f 93       	push	r21
    25d6:	6f 93       	push	r22
    25d8:	7f 93       	push	r23
    25da:	8f 93       	push	r24
    25dc:	9f 93       	push	r25
    25de:	af 93       	push	r26
    25e0:	bf 93       	push	r27
    25e2:	ef 93       	push	r30
    25e4:	ff 93       	push	r31
	if (tc_tccr5_compa_callback) {
    25e6:	e0 91 11 08 	lds	r30, 0x0811	; 0x800811 <tc_tccr5_compa_callback>
    25ea:	f0 91 12 08 	lds	r31, 0x0812	; 0x800812 <tc_tccr5_compa_callback+0x1>
    25ee:	30 97       	sbiw	r30, 0x00	; 0
    25f0:	09 f0       	breq	.+2      	; 0x25f4 <__vector_47+0x34>
		tc_tccr5_compa_callback();
    25f2:	19 95       	eicall
	}
}
    25f4:	ff 91       	pop	r31
    25f6:	ef 91       	pop	r30
    25f8:	bf 91       	pop	r27
    25fa:	af 91       	pop	r26
    25fc:	9f 91       	pop	r25
    25fe:	8f 91       	pop	r24
    2600:	7f 91       	pop	r23
    2602:	6f 91       	pop	r22
    2604:	5f 91       	pop	r21
    2606:	4f 91       	pop	r20
    2608:	3f 91       	pop	r19
    260a:	2f 91       	pop	r18
    260c:	0f 90       	pop	r0
    260e:	0b be       	out	0x3b, r0	; 59
    2610:	0f 90       	pop	r0
    2612:	0f be       	out	0x3f, r0	; 63
    2614:	0f 90       	pop	r0
    2616:	1f 90       	pop	r1
    2618:	18 95       	reti

0000261a <__vector_48>:

ISR(TIMER5_COMPB_vect)
{
    261a:	1f 92       	push	r1
    261c:	0f 92       	push	r0
    261e:	0f b6       	in	r0, 0x3f	; 63
    2620:	0f 92       	push	r0
    2622:	11 24       	eor	r1, r1
    2624:	0b b6       	in	r0, 0x3b	; 59
    2626:	0f 92       	push	r0
    2628:	2f 93       	push	r18
    262a:	3f 93       	push	r19
    262c:	4f 93       	push	r20
    262e:	5f 93       	push	r21
    2630:	6f 93       	push	r22
    2632:	7f 93       	push	r23
    2634:	8f 93       	push	r24
    2636:	9f 93       	push	r25
    2638:	af 93       	push	r26
    263a:	bf 93       	push	r27
    263c:	ef 93       	push	r30
    263e:	ff 93       	push	r31
	if (tc_tccr5_compb_callback) {
    2640:	e0 91 0f 08 	lds	r30, 0x080F	; 0x80080f <tc_tccr5_compb_callback>
    2644:	f0 91 10 08 	lds	r31, 0x0810	; 0x800810 <tc_tccr5_compb_callback+0x1>
    2648:	30 97       	sbiw	r30, 0x00	; 0
    264a:	09 f0       	breq	.+2      	; 0x264e <__vector_48+0x34>
		tc_tccr5_compb_callback();
    264c:	19 95       	eicall
	}
}
    264e:	ff 91       	pop	r31
    2650:	ef 91       	pop	r30
    2652:	bf 91       	pop	r27
    2654:	af 91       	pop	r26
    2656:	9f 91       	pop	r25
    2658:	8f 91       	pop	r24
    265a:	7f 91       	pop	r23
    265c:	6f 91       	pop	r22
    265e:	5f 91       	pop	r21
    2660:	4f 91       	pop	r20
    2662:	3f 91       	pop	r19
    2664:	2f 91       	pop	r18
    2666:	0f 90       	pop	r0
    2668:	0b be       	out	0x3b, r0	; 59
    266a:	0f 90       	pop	r0
    266c:	0f be       	out	0x3f, r0	; 63
    266e:	0f 90       	pop	r0
    2670:	1f 90       	pop	r1
    2672:	18 95       	reti

00002674 <__vector_49>:

ISR(TIMER5_COMPC_vect)
{
    2674:	1f 92       	push	r1
    2676:	0f 92       	push	r0
    2678:	0f b6       	in	r0, 0x3f	; 63
    267a:	0f 92       	push	r0
    267c:	11 24       	eor	r1, r1
    267e:	0b b6       	in	r0, 0x3b	; 59
    2680:	0f 92       	push	r0
    2682:	2f 93       	push	r18
    2684:	3f 93       	push	r19
    2686:	4f 93       	push	r20
    2688:	5f 93       	push	r21
    268a:	6f 93       	push	r22
    268c:	7f 93       	push	r23
    268e:	8f 93       	push	r24
    2690:	9f 93       	push	r25
    2692:	af 93       	push	r26
    2694:	bf 93       	push	r27
    2696:	ef 93       	push	r30
    2698:	ff 93       	push	r31
	if (tc_tccr5_compc_callback) {
    269a:	e0 91 0d 08 	lds	r30, 0x080D	; 0x80080d <tc_tccr5_compc_callback>
    269e:	f0 91 0e 08 	lds	r31, 0x080E	; 0x80080e <tc_tccr5_compc_callback+0x1>
    26a2:	30 97       	sbiw	r30, 0x00	; 0
    26a4:	09 f0       	breq	.+2      	; 0x26a8 <__vector_49+0x34>
		tc_tccr5_compc_callback();
    26a6:	19 95       	eicall
	}
}
    26a8:	ff 91       	pop	r31
    26aa:	ef 91       	pop	r30
    26ac:	bf 91       	pop	r27
    26ae:	af 91       	pop	r26
    26b0:	9f 91       	pop	r25
    26b2:	8f 91       	pop	r24
    26b4:	7f 91       	pop	r23
    26b6:	6f 91       	pop	r22
    26b8:	5f 91       	pop	r21
    26ba:	4f 91       	pop	r20
    26bc:	3f 91       	pop	r19
    26be:	2f 91       	pop	r18
    26c0:	0f 90       	pop	r0
    26c2:	0b be       	out	0x3b, r0	; 59
    26c4:	0f 90       	pop	r0
    26c6:	0f be       	out	0x3f, r0	; 63
    26c8:	0f 90       	pop	r0
    26ca:	1f 90       	pop	r1
    26cc:	18 95       	reti

000026ce <tc_enable>:

void tc_enable(volatile void *tc)
{
    26ce:	1f 93       	push	r17
    26d0:	cf 93       	push	r28
    26d2:	df 93       	push	r29
    26d4:	1f 92       	push	r1
    26d6:	cd b7       	in	r28, 0x3d	; 61
    26d8:	de b7       	in	r29, 0x3e	; 62

typedef uint8_t irqflags_t;

static inline irqflags_t cpu_irq_save(void)
{
	volatile irqflags_t flags = SREG;
    26da:	2f b7       	in	r18, 0x3f	; 63
    26dc:	29 83       	std	Y+1, r18	; 0x01
	cpu_irq_disable();
    26de:	f8 94       	cli
	return flags;
    26e0:	19 81       	ldd	r17, Y+1	; 0x01
 *
 * \param module Pointer to the module's base address.
 */
static inline void sysclk_enable_peripheral_clock(const volatile void *module)
{
	if (module == NULL) {
    26e2:	00 97       	sbiw	r24, 0x00	; 0
    26e4:	09 f4       	brne	.+2      	; 0x26e8 <tc_enable+0x1a>
    26e6:	64 c0       	rjmp	.+200    	; 0x27b0 <tc_enable+0xe2>
		Assert(false);
	}

#if !MEGA_XX_UN0 && !MEGA_XX_UN1
	else if (module == &ADC) {
    26e8:	88 37       	cpi	r24, 0x78	; 120
    26ea:	91 05       	cpc	r25, r1
    26ec:	49 f4       	brne	.+18     	; 0x2700 <tc_enable+0x32>
		sysclk_enable_module(POWER_RED_REG0, PRADC_bm);
    26ee:	61 e0       	ldi	r22, 0x01	; 1
    26f0:	80 e0       	ldi	r24, 0x00	; 0
    26f2:	0e 94 e2 01 	call	0x3c4	; 0x3c4 <sysclk_enable_module>
#if MEGA_RF
		sysclk_enable_module(POWER_RED_REG0, PRPGA_bm);
    26f6:	60 e1       	ldi	r22, 0x10	; 16
    26f8:	80 e0       	ldi	r24, 0x00	; 0
    26fa:	0e 94 e2 01 	call	0x3c4	; 0x3c4 <sysclk_enable_module>
    26fe:	58 c0       	rjmp	.+176    	; 0x27b0 <tc_enable+0xe2>
#endif
	}
#if !MEGA_UNCATEGORIZED
	else if (module == &UCSR0A) {
    2700:	80 3c       	cpi	r24, 0xC0	; 192
    2702:	91 05       	cpc	r25, r1
    2704:	29 f4       	brne	.+10     	; 0x2710 <tc_enable+0x42>
		sysclk_enable_module(POWER_RED_REG0, PRUSART0_bm);
    2706:	62 e0       	ldi	r22, 0x02	; 2
    2708:	80 e0       	ldi	r24, 0x00	; 0
    270a:	0e 94 e2 01 	call	0x3c4	; 0x3c4 <sysclk_enable_module>
    270e:	50 c0       	rjmp	.+160    	; 0x27b0 <tc_enable+0xe2>
	}
#endif
#if MEGA_RF
	else if (module == &SPCR) {
    2710:	8c 34       	cpi	r24, 0x4C	; 76
    2712:	91 05       	cpc	r25, r1
    2714:	29 f4       	brne	.+10     	; 0x2720 <tc_enable+0x52>
		sysclk_enable_module(POWER_RED_REG0, PRSPI_bm);
    2716:	64 e0       	ldi	r22, 0x04	; 4
    2718:	80 e0       	ldi	r24, 0x00	; 0
    271a:	0e 94 e2 01 	call	0x3c4	; 0x3c4 <sysclk_enable_module>
    271e:	48 c0       	rjmp	.+144    	; 0x27b0 <tc_enable+0xe2>
	}
#endif

	else if (module == &TCCR1A) {
    2720:	80 38       	cpi	r24, 0x80	; 128
    2722:	91 05       	cpc	r25, r1
    2724:	29 f4       	brne	.+10     	; 0x2730 <tc_enable+0x62>
		sysclk_enable_module(POWER_RED_REG0, PRTIM1_bm);
    2726:	68 e0       	ldi	r22, 0x08	; 8
    2728:	80 e0       	ldi	r24, 0x00	; 0
    272a:	0e 94 e2 01 	call	0x3c4	; 0x3c4 <sysclk_enable_module>
    272e:	40 c0       	rjmp	.+128    	; 0x27b0 <tc_enable+0xe2>
		sysclk_enable_module(POWER_RED_REG0, PRLCD_bm);
	}
#endif

#if !MEGA_XX_UN2 && !MEGA_UNCATEGORIZED
	else if (module == &TCCR0A) {
    2730:	84 34       	cpi	r24, 0x44	; 68
    2732:	91 05       	cpc	r25, r1
    2734:	29 f4       	brne	.+10     	; 0x2740 <tc_enable+0x72>
		sysclk_enable_module(POWER_RED_REG0, PRTIM0_bm);
    2736:	60 e2       	ldi	r22, 0x20	; 32
    2738:	80 e0       	ldi	r24, 0x00	; 0
    273a:	0e 94 e2 01 	call	0x3c4	; 0x3c4 <sysclk_enable_module>
    273e:	38 c0       	rjmp	.+112    	; 0x27b0 <tc_enable+0xe2>
	} else if (module == &TCCR2A) {
    2740:	80 3b       	cpi	r24, 0xB0	; 176
    2742:	91 05       	cpc	r25, r1
    2744:	29 f4       	brne	.+10     	; 0x2750 <tc_enable+0x82>
		sysclk_enable_module(POWER_RED_REG0, PRTIM2_bm);
    2746:	60 e4       	ldi	r22, 0x40	; 64
    2748:	80 e0       	ldi	r24, 0x00	; 0
    274a:	0e 94 e2 01 	call	0x3c4	; 0x3c4 <sysclk_enable_module>
    274e:	30 c0       	rjmp	.+96     	; 0x27b0 <tc_enable+0xe2>
#if AVR8_PART_IS_DEFINED(ATmega328PB) || AVR8_PART_IS_DEFINED(ATmega324PB)
	} else if (module == &TWBR0) {
		sysclk_enable_module(POWER_RED_REG0, PRTWI_bm);
	}
#else
	} else if (module == &TWBR) {
    2750:	88 3b       	cpi	r24, 0xB8	; 184
    2752:	91 05       	cpc	r25, r1
    2754:	29 f4       	brne	.+10     	; 0x2760 <tc_enable+0x92>
		sysclk_enable_module(POWER_RED_REG0, PRTWI_bm);
    2756:	60 e8       	ldi	r22, 0x80	; 128
    2758:	80 e0       	ldi	r24, 0x00	; 0
    275a:	0e 94 e2 01 	call	0x3c4	; 0x3c4 <sysclk_enable_module>
    275e:	28 c0       	rjmp	.+80     	; 0x27b0 <tc_enable+0xe2>
	}
#endif
#endif

#if MEGA_RF
	else if (module == &UCSR1A) {
    2760:	88 3c       	cpi	r24, 0xC8	; 200
    2762:	91 05       	cpc	r25, r1
    2764:	29 f4       	brne	.+10     	; 0x2770 <tc_enable+0xa2>
		sysclk_enable_module(POWER_RED_REG1, PRUSART1_bm);
    2766:	61 e0       	ldi	r22, 0x01	; 1
    2768:	81 e0       	ldi	r24, 0x01	; 1
    276a:	0e 94 e2 01 	call	0x3c4	; 0x3c4 <sysclk_enable_module>
    276e:	20 c0       	rjmp	.+64     	; 0x27b0 <tc_enable+0xe2>
	} else if (module == &TCCR3A) {
    2770:	80 39       	cpi	r24, 0x90	; 144
    2772:	91 05       	cpc	r25, r1
    2774:	29 f4       	brne	.+10     	; 0x2780 <tc_enable+0xb2>
		sysclk_enable_module(POWER_RED_REG1, PRTIM3_bm);
    2776:	68 e0       	ldi	r22, 0x08	; 8
    2778:	81 e0       	ldi	r24, 0x01	; 1
    277a:	0e 94 e2 01 	call	0x3c4	; 0x3c4 <sysclk_enable_module>
    277e:	18 c0       	rjmp	.+48     	; 0x27b0 <tc_enable+0xe2>
	} else if (module == &TCCR4A) {
    2780:	80 3a       	cpi	r24, 0xA0	; 160
    2782:	91 05       	cpc	r25, r1
    2784:	29 f4       	brne	.+10     	; 0x2790 <tc_enable+0xc2>
		sysclk_enable_module(POWER_RED_REG1, PRTIM4_bm);
    2786:	60 e1       	ldi	r22, 0x10	; 16
    2788:	81 e0       	ldi	r24, 0x01	; 1
    278a:	0e 94 e2 01 	call	0x3c4	; 0x3c4 <sysclk_enable_module>
    278e:	10 c0       	rjmp	.+32     	; 0x27b0 <tc_enable+0xe2>
	} else if (module == &TCCR5A) {
    2790:	80 32       	cpi	r24, 0x20	; 32
    2792:	21 e0       	ldi	r18, 0x01	; 1
    2794:	92 07       	cpc	r25, r18
    2796:	29 f4       	brne	.+10     	; 0x27a2 <tc_enable+0xd4>
		sysclk_enable_module(POWER_RED_REG1, PRTIM5_bm);
    2798:	60 e2       	ldi	r22, 0x20	; 32
    279a:	81 e0       	ldi	r24, 0x01	; 1
    279c:	0e 94 e2 01 	call	0x3c4	; 0x3c4 <sysclk_enable_module>
    27a0:	07 c0       	rjmp	.+14     	; 0x27b0 <tc_enable+0xe2>
	} else if (module == &TRX_CTRL_0) {
    27a2:	83 34       	cpi	r24, 0x43	; 67
    27a4:	91 40       	sbci	r25, 0x01	; 1
    27a6:	21 f4       	brne	.+8      	; 0x27b0 <tc_enable+0xe2>
		sysclk_enable_module(POWER_RED_REG1, PRTRX24_bm);
    27a8:	60 e4       	ldi	r22, 0x40	; 64
    27aa:	81 e0       	ldi	r24, 0x01	; 1
    27ac:	0e 94 e2 01 	call	0x3c4	; 0x3c4 <sysclk_enable_module>
}

static inline void cpu_irq_restore(irqflags_t flags)
{
	barrier();
	SREG = flags;
    27b0:	1f bf       	out	0x3f, r17	; 63
	irqflags_t iflags = cpu_irq_save();

	sysclk_enable_peripheral_clock(tc);

	cpu_irq_restore(iflags);
}
    27b2:	0f 90       	pop	r0
    27b4:	df 91       	pop	r29
    27b6:	cf 91       	pop	r28
    27b8:	1f 91       	pop	r17
    27ba:	08 95       	ret

000027bc <tc_disable>:

void tc_disable(volatile void *tc)
{
    27bc:	1f 93       	push	r17
    27be:	cf 93       	push	r28
    27c0:	df 93       	push	r29
    27c2:	1f 92       	push	r1
    27c4:	cd b7       	in	r28, 0x3d	; 61
    27c6:	de b7       	in	r29, 0x3e	; 62

typedef uint8_t irqflags_t;

static inline irqflags_t cpu_irq_save(void)
{
	volatile irqflags_t flags = SREG;
    27c8:	2f b7       	in	r18, 0x3f	; 63
    27ca:	29 83       	std	Y+1, r18	; 0x01
	cpu_irq_disable();
    27cc:	f8 94       	cli
	return flags;
    27ce:	19 81       	ldd	r17, Y+1	; 0x01
 *
 * \param module Pointer to the module's base address.
 */
static inline void sysclk_disable_peripheral_clock(const volatile void *module)
{
	if (module == NULL) {
    27d0:	00 97       	sbiw	r24, 0x00	; 0
    27d2:	09 f4       	brne	.+2      	; 0x27d6 <tc_disable+0x1a>
    27d4:	64 c0       	rjmp	.+200    	; 0x289e <tc_disable+0xe2>
		Assert(false);
	}

#if !MEGA_XX_UN0 && !MEGA_XX_UN1
	else if (module == &ADC) {
    27d6:	88 37       	cpi	r24, 0x78	; 120
    27d8:	91 05       	cpc	r25, r1
    27da:	49 f4       	brne	.+18     	; 0x27ee <tc_disable+0x32>
		sysclk_disable_module(POWER_RED_REG0, PRADC_bm);
    27dc:	61 e0       	ldi	r22, 0x01	; 1
    27de:	80 e0       	ldi	r24, 0x00	; 0
    27e0:	0e 94 fa 01 	call	0x3f4	; 0x3f4 <sysclk_disable_module>
#if MEGA_RF
		sysclk_disable_module(POWER_RED_REG0, PRPGA_bm);
    27e4:	60 e1       	ldi	r22, 0x10	; 16
    27e6:	80 e0       	ldi	r24, 0x00	; 0
    27e8:	0e 94 fa 01 	call	0x3f4	; 0x3f4 <sysclk_disable_module>
    27ec:	58 c0       	rjmp	.+176    	; 0x289e <tc_disable+0xe2>
#endif
	} 
#if !MEGA_UNCATEGORIZED
	else if (module == &UCSR0A) {
    27ee:	80 3c       	cpi	r24, 0xC0	; 192
    27f0:	91 05       	cpc	r25, r1
    27f2:	29 f4       	brne	.+10     	; 0x27fe <tc_disable+0x42>
		sysclk_disable_module(POWER_RED_REG0, PRUSART0_bm);
    27f4:	62 e0       	ldi	r22, 0x02	; 2
    27f6:	80 e0       	ldi	r24, 0x00	; 0
    27f8:	0e 94 fa 01 	call	0x3f4	; 0x3f4 <sysclk_disable_module>
    27fc:	50 c0       	rjmp	.+160    	; 0x289e <tc_disable+0xe2>
	}
#endif
#if MEGA_RF
	else if (module == &SPCR) {
    27fe:	8c 34       	cpi	r24, 0x4C	; 76
    2800:	91 05       	cpc	r25, r1
    2802:	29 f4       	brne	.+10     	; 0x280e <tc_disable+0x52>
		sysclk_disable_module(POWER_RED_REG0, PRSPI_bm);
    2804:	64 e0       	ldi	r22, 0x04	; 4
    2806:	80 e0       	ldi	r24, 0x00	; 0
    2808:	0e 94 fa 01 	call	0x3f4	; 0x3f4 <sysclk_disable_module>
    280c:	48 c0       	rjmp	.+144    	; 0x289e <tc_disable+0xe2>
	}
#endif
	else if (module == &TCCR1A) {
    280e:	80 38       	cpi	r24, 0x80	; 128
    2810:	91 05       	cpc	r25, r1
    2812:	29 f4       	brne	.+10     	; 0x281e <tc_disable+0x62>
		sysclk_disable_module(POWER_RED_REG0, PRTIM1_bm);
    2814:	68 e0       	ldi	r22, 0x08	; 8
    2816:	80 e0       	ldi	r24, 0x00	; 0
    2818:	0e 94 fa 01 	call	0x3f4	; 0x3f4 <sysclk_disable_module>
    281c:	40 c0       	rjmp	.+128    	; 0x289e <tc_disable+0xe2>
	else if (module == &LCDCRA) {
		sysclk_disable_module(POWER_RED_REG0, PRLCD_bm);
	}
#endif
#if !MEGA_XX_UN2 && !MEGA_UNCATEGORIZED
	else if (module == &TCCR0A) {
    281e:	84 34       	cpi	r24, 0x44	; 68
    2820:	91 05       	cpc	r25, r1
    2822:	29 f4       	brne	.+10     	; 0x282e <tc_disable+0x72>
		sysclk_disable_module(POWER_RED_REG0, PRTIM0_bm);
    2824:	60 e2       	ldi	r22, 0x20	; 32
    2826:	80 e0       	ldi	r24, 0x00	; 0
    2828:	0e 94 fa 01 	call	0x3f4	; 0x3f4 <sysclk_disable_module>
    282c:	38 c0       	rjmp	.+112    	; 0x289e <tc_disable+0xe2>
	} else if (module == &TCCR2A) {
    282e:	80 3b       	cpi	r24, 0xB0	; 176
    2830:	91 05       	cpc	r25, r1
    2832:	29 f4       	brne	.+10     	; 0x283e <tc_disable+0x82>
		sysclk_disable_module(POWER_RED_REG0, PRTIM2_bm);
    2834:	60 e4       	ldi	r22, 0x40	; 64
    2836:	80 e0       	ldi	r24, 0x00	; 0
    2838:	0e 94 fa 01 	call	0x3f4	; 0x3f4 <sysclk_disable_module>
    283c:	30 c0       	rjmp	.+96     	; 0x289e <tc_disable+0xe2>
#if AVR8_PART_IS_DEFINED(ATmega328PB) || AVR8_PART_IS_DEFINED(ATmega324PB)
	} else if (module == &TWBR0) {
		sysclk_disable_module(POWER_RED_REG0, PRTWI_bm);
	}
#else
	} else if (module == &TWBR) {
    283e:	88 3b       	cpi	r24, 0xB8	; 184
    2840:	91 05       	cpc	r25, r1
    2842:	29 f4       	brne	.+10     	; 0x284e <tc_disable+0x92>
		sysclk_disable_module(POWER_RED_REG0, PRTWI_bm);
    2844:	60 e8       	ldi	r22, 0x80	; 128
    2846:	80 e0       	ldi	r24, 0x00	; 0
    2848:	0e 94 fa 01 	call	0x3f4	; 0x3f4 <sysclk_disable_module>
    284c:	28 c0       	rjmp	.+80     	; 0x289e <tc_disable+0xe2>
	}
#endif
#endif

#if MEGA_RF
	else if (module == &UCSR1A) {
    284e:	88 3c       	cpi	r24, 0xC8	; 200
    2850:	91 05       	cpc	r25, r1
    2852:	29 f4       	brne	.+10     	; 0x285e <tc_disable+0xa2>
		sysclk_disable_module(POWER_RED_REG1, PRUSART1_bm);
    2854:	61 e0       	ldi	r22, 0x01	; 1
    2856:	81 e0       	ldi	r24, 0x01	; 1
    2858:	0e 94 fa 01 	call	0x3f4	; 0x3f4 <sysclk_disable_module>
    285c:	20 c0       	rjmp	.+64     	; 0x289e <tc_disable+0xe2>
	} else if (module == &TCCR3A) {
    285e:	80 39       	cpi	r24, 0x90	; 144
    2860:	91 05       	cpc	r25, r1
    2862:	29 f4       	brne	.+10     	; 0x286e <tc_disable+0xb2>
		sysclk_disable_module(POWER_RED_REG1, PRTIM3_bm);
    2864:	68 e0       	ldi	r22, 0x08	; 8
    2866:	81 e0       	ldi	r24, 0x01	; 1
    2868:	0e 94 fa 01 	call	0x3f4	; 0x3f4 <sysclk_disable_module>
    286c:	18 c0       	rjmp	.+48     	; 0x289e <tc_disable+0xe2>
	} else if (module == &TCCR4A) {
    286e:	80 3a       	cpi	r24, 0xA0	; 160
    2870:	91 05       	cpc	r25, r1
    2872:	29 f4       	brne	.+10     	; 0x287e <tc_disable+0xc2>
		sysclk_disable_module(POWER_RED_REG1, PRTIM4_bm);
    2874:	60 e1       	ldi	r22, 0x10	; 16
    2876:	81 e0       	ldi	r24, 0x01	; 1
    2878:	0e 94 fa 01 	call	0x3f4	; 0x3f4 <sysclk_disable_module>
    287c:	10 c0       	rjmp	.+32     	; 0x289e <tc_disable+0xe2>
	} else if (module == &TCCR5A) {
    287e:	80 32       	cpi	r24, 0x20	; 32
    2880:	21 e0       	ldi	r18, 0x01	; 1
    2882:	92 07       	cpc	r25, r18
    2884:	29 f4       	brne	.+10     	; 0x2890 <tc_disable+0xd4>
		sysclk_disable_module(POWER_RED_REG1, PRTIM5_bm);
    2886:	60 e2       	ldi	r22, 0x20	; 32
    2888:	81 e0       	ldi	r24, 0x01	; 1
    288a:	0e 94 fa 01 	call	0x3f4	; 0x3f4 <sysclk_disable_module>
    288e:	07 c0       	rjmp	.+14     	; 0x289e <tc_disable+0xe2>
	} else if (module == &TRX_CTRL_0) {
    2890:	83 34       	cpi	r24, 0x43	; 67
    2892:	91 40       	sbci	r25, 0x01	; 1
    2894:	21 f4       	brne	.+8      	; 0x289e <tc_disable+0xe2>
		sysclk_disable_module(POWER_RED_REG1, PRTRX24_bm);
    2896:	60 e4       	ldi	r22, 0x40	; 64
    2898:	81 e0       	ldi	r24, 0x01	; 1
    289a:	0e 94 fa 01 	call	0x3f4	; 0x3f4 <sysclk_disable_module>
}

static inline void cpu_irq_restore(irqflags_t flags)
{
	barrier();
	SREG = flags;
    289e:	1f bf       	out	0x3f, r17	; 63
	irqflags_t iflags = cpu_irq_save();

	sysclk_disable_peripheral_clock(tc);

	cpu_irq_restore(iflags);
}
    28a0:	0f 90       	pop	r0
    28a2:	df 91       	pop	r29
    28a4:	cf 91       	pop	r28
    28a6:	1f 91       	pop	r17
    28a8:	08 95       	ret

000028aa <tc_set_overflow_interrupt_callback>:

void tc_set_overflow_interrupt_callback(volatile void *tc,
		tc_callback_t callback)
{
	if ((uintptr_t)tc == (uintptr_t)&TCCR1A) {
    28aa:	80 38       	cpi	r24, 0x80	; 128
    28ac:	91 05       	cpc	r25, r1
    28ae:	29 f4       	brne	.+10     	; 0x28ba <tc_set_overflow_interrupt_callback+0x10>
		tc_tccr1_ovf_callback = callback;
    28b0:	70 93 2c 08 	sts	0x082C, r23	; 0x80082c <tc_tccr1_ovf_callback+0x1>
    28b4:	60 93 2b 08 	sts	0x082B, r22	; 0x80082b <tc_tccr1_ovf_callback>
    28b8:	08 95       	ret
	} else if ((uintptr_t)tc == (uintptr_t)&TCCR3A) {
    28ba:	80 39       	cpi	r24, 0x90	; 144
    28bc:	91 05       	cpc	r25, r1
    28be:	29 f4       	brne	.+10     	; 0x28ca <tc_set_overflow_interrupt_callback+0x20>
		tc_tccr3_ovf_callback = callback;
    28c0:	70 93 24 08 	sts	0x0824, r23	; 0x800824 <tc_tccr3_ovf_callback+0x1>
    28c4:	60 93 23 08 	sts	0x0823, r22	; 0x800823 <tc_tccr3_ovf_callback>
    28c8:	08 95       	ret
	} else if ((uintptr_t)tc == (uintptr_t)&TCCR4A) {
    28ca:	80 3a       	cpi	r24, 0xA0	; 160
    28cc:	91 05       	cpc	r25, r1
    28ce:	29 f4       	brne	.+10     	; 0x28da <tc_set_overflow_interrupt_callback+0x30>
		tc_tccr4_ovf_callback = callback;
    28d0:	70 93 1c 08 	sts	0x081C, r23	; 0x80081c <tc_tccr4_ovf_callback+0x1>
    28d4:	60 93 1b 08 	sts	0x081B, r22	; 0x80081b <tc_tccr4_ovf_callback>
    28d8:	08 95       	ret
	} else if ((uintptr_t)tc == (uintptr_t)&TCCR5A) {
    28da:	80 32       	cpi	r24, 0x20	; 32
    28dc:	91 40       	sbci	r25, 0x01	; 1
    28de:	21 f4       	brne	.+8      	; 0x28e8 <tc_set_overflow_interrupt_callback+0x3e>
		tc_tccr5_ovf_callback = callback;
    28e0:	70 93 14 08 	sts	0x0814, r23	; 0x800814 <tc_tccr5_ovf_callback+0x1>
    28e4:	60 93 13 08 	sts	0x0813, r22	; 0x800813 <tc_tccr5_ovf_callback>
    28e8:	08 95       	ret

000028ea <tc_set_compa_interrupt_callback>:
	} else {}
}

void tc_set_compa_interrupt_callback(volatile void *tc, tc_callback_t callback)
{
	if ((uintptr_t)tc == (uintptr_t)&TCCR1A) {
    28ea:	80 38       	cpi	r24, 0x80	; 128
    28ec:	91 05       	cpc	r25, r1
    28ee:	29 f4       	brne	.+10     	; 0x28fa <tc_set_compa_interrupt_callback+0x10>
		tc_tccr1_compa_callback = callback;
    28f0:	70 93 2a 08 	sts	0x082A, r23	; 0x80082a <tc_tccr1_compa_callback+0x1>
    28f4:	60 93 29 08 	sts	0x0829, r22	; 0x800829 <tc_tccr1_compa_callback>
    28f8:	08 95       	ret
	} else if ((uintptr_t)tc == (uintptr_t)&TCCR3A) {
    28fa:	80 39       	cpi	r24, 0x90	; 144
    28fc:	91 05       	cpc	r25, r1
    28fe:	29 f4       	brne	.+10     	; 0x290a <tc_set_compa_interrupt_callback+0x20>
		tc_tccr3_compa_callback = callback;
    2900:	70 93 22 08 	sts	0x0822, r23	; 0x800822 <tc_tccr3_compa_callback+0x1>
    2904:	60 93 21 08 	sts	0x0821, r22	; 0x800821 <tc_tccr3_compa_callback>
    2908:	08 95       	ret
	} else if ((uintptr_t)tc == (uintptr_t)&TCCR4A) {
    290a:	80 3a       	cpi	r24, 0xA0	; 160
    290c:	91 05       	cpc	r25, r1
    290e:	29 f4       	brne	.+10     	; 0x291a <tc_set_compa_interrupt_callback+0x30>
		tc_tccr4_compa_callback = callback;
    2910:	70 93 1a 08 	sts	0x081A, r23	; 0x80081a <tc_tccr4_compa_callback+0x1>
    2914:	60 93 19 08 	sts	0x0819, r22	; 0x800819 <tc_tccr4_compa_callback>
    2918:	08 95       	ret
	} else if ((uintptr_t)tc == (uintptr_t)&TCCR5A) {
    291a:	80 32       	cpi	r24, 0x20	; 32
    291c:	91 40       	sbci	r25, 0x01	; 1
    291e:	21 f4       	brne	.+8      	; 0x2928 <tc_set_compa_interrupt_callback+0x3e>
		tc_tccr5_compa_callback = callback;
    2920:	70 93 12 08 	sts	0x0812, r23	; 0x800812 <tc_tccr5_compa_callback+0x1>
    2924:	60 93 11 08 	sts	0x0811, r22	; 0x800811 <tc_tccr5_compa_callback>
    2928:	08 95       	ret

0000292a <sal_init>:

/**
 * @brief Cleans up the SAL/AES after STB has been finished
 */
void _sal_aes_clean_up(void)
{
    292a:	08 95       	ret

0000292c <sal_aes_exec>:
 * The function returns after the AES operation is finished.
 *
 * @param[in]  data  AES block to be en/decrypted
 */
void sal_aes_exec(uint8_t *data)
{
    292c:	fc 01       	movw	r30, r24
    292e:	9c 01       	movw	r18, r24
    2930:	20 5f       	subi	r18, 0xF0	; 240
    2932:	3f 4f       	sbci	r19, 0xFF	; 255
	uint8_t i;

	for (i = 0; i < AES_BLOCKSIZE; ++i) {
		trx_reg_write(RG_AES_STATE, *data++);
    2934:	ae e3       	ldi	r26, 0x3E	; 62
    2936:	b1 e0       	ldi	r27, 0x01	; 1
    2938:	81 91       	ld	r24, Z+
    293a:	8c 93       	st	X, r24
 */
void sal_aes_exec(uint8_t *data)
{
	uint8_t i;

	for (i = 0; i < AES_BLOCKSIZE; ++i) {
    293c:	e2 17       	cp	r30, r18
    293e:	f3 07       	cpc	r31, r19
    2940:	d9 f7       	brne	.-10     	; 0x2938 <sal_aes_exec+0xc>
		trx_reg_write(RG_AES_STATE, *data++);
	}

	trx_reg_write(RG_AES_CTRL,
    2942:	80 91 4d 08 	lds	r24, 0x084D	; 0x80084d <mode_byte>
    2946:	80 68       	ori	r24, 0x80	; 128
    2948:	80 93 3c 01 	sts	0x013C, r24	; 0x80013c <__TEXT_REGION_LENGTH__+0x70013c>
			mode_byte | SR_MASK(SR_AES_REQUEST, AES_START));

	/* Wait for the operation to finish - poll RG_AES_RY. */
	while (!trx_bit_read(SR_AES_DONE)) {
    294c:	ed e3       	ldi	r30, 0x3D	; 61
    294e:	f1 e0       	ldi	r31, 0x01	; 1
    2950:	80 81       	ld	r24, Z
    2952:	80 ff       	sbrs	r24, 0
    2954:	fd cf       	rjmp	.-6      	; 0x2950 <sal_aes_exec+0x24>
	}
}
    2956:	08 95       	ret

00002958 <sal_aes_setup>:
 * @return  False if some parameter was illegal, true else
 */
bool sal_aes_setup(uint8_t *key,
		uint8_t enc_mode,
		uint8_t dir)
{
    2958:	0f 93       	push	r16
    295a:	1f 93       	push	r17
    295c:	cf 93       	push	r28
    295e:	df 93       	push	r29
    2960:	cd b7       	in	r28, 0x3d	; 61
    2962:	de b7       	in	r29, 0x3e	; 62
    2964:	60 97       	sbiw	r28, 0x10	; 16
    2966:	0f b6       	in	r0, 0x3f	; 63
    2968:	f8 94       	cli
    296a:	de bf       	out	0x3e, r29	; 62
    296c:	0f be       	out	0x3f, r0	; 63
    296e:	cd bf       	out	0x3d, r28	; 61
    2970:	06 2f       	mov	r16, r22
    2972:	14 2f       	mov	r17, r20
	uint8_t i;

	if (key != NULL) {
    2974:	00 97       	sbiw	r24, 0x00	; 0
    2976:	c9 f0       	breq	.+50     	; 0x29aa <sal_aes_setup+0x52>
		/* Setup key. */
		dec_initialized = false;
    2978:	10 92 4e 08 	sts	0x084E, r1	; 0x80084e <dec_initialized>

		last_dir = AES_DIR_VOID;
    297c:	22 e0       	ldi	r18, 0x02	; 2
    297e:	20 93 11 02 	sts	0x0211, r18	; 0x800211 <last_dir>

		/* Save key for later use after decryption or sleep. */
		memcpy(enc_key, key, AES_KEYSIZE);
    2982:	20 e1       	ldi	r18, 0x10	; 16
    2984:	fc 01       	movw	r30, r24
    2986:	ad e3       	ldi	r26, 0x3D	; 61
    2988:	b8 e0       	ldi	r27, 0x08	; 8
    298a:	01 90       	ld	r0, Z+
    298c:	0d 92       	st	X+, r0
    298e:	2a 95       	dec	r18
    2990:	e1 f7       	brne	.-8      	; 0x298a <sal_aes_setup+0x32>
    2992:	dc 01       	movw	r26, r24
    2994:	ac 01       	movw	r20, r24
    2996:	40 5f       	subi	r20, 0xF0	; 240
    2998:	5f 4f       	sbci	r21, 0xFF	; 255

		/* fill in key */
		for (i = 0; i < AES_BLOCKSIZE; ++i) {
			trx_reg_write(RG_AES_KEY, key[i]);
    299a:	2f e3       	ldi	r18, 0x3F	; 63
    299c:	31 e0       	ldi	r19, 0x01	; 1
    299e:	9d 91       	ld	r25, X+
    29a0:	f9 01       	movw	r30, r18
    29a2:	90 83       	st	Z, r25

		/* Save key for later use after decryption or sleep. */
		memcpy(enc_key, key, AES_KEYSIZE);

		/* fill in key */
		for (i = 0; i < AES_BLOCKSIZE; ++i) {
    29a4:	4a 17       	cp	r20, r26
    29a6:	5b 07       	cpc	r21, r27
    29a8:	d1 f7       	brne	.-12     	; 0x299e <sal_aes_setup+0x46>
			trx_reg_write(RG_AES_KEY, key[i]);
		}
	}

	/* Set encryption direction. */
	switch (dir) {
    29aa:	11 23       	and	r17, r17
    29ac:	19 f0       	breq	.+6      	; 0x29b4 <sal_aes_setup+0x5c>
    29ae:	11 30       	cpi	r17, 0x01	; 1
    29b0:	89 f0       	breq	.+34     	; 0x29d4 <sal_aes_setup+0x7c>
    29b2:	48 c0       	rjmp	.+144    	; 0x2a44 <sal_aes_setup+0xec>
	case AES_DIR_ENCRYPT:
		if (last_dir == AES_DIR_DECRYPT) {
    29b4:	80 91 11 02 	lds	r24, 0x0211	; 0x800211 <last_dir>
    29b8:	81 30       	cpi	r24, 0x01	; 1
    29ba:	79 f5       	brne	.+94     	; 0x2a1a <sal_aes_setup+0xc2>
    29bc:	ed e3       	ldi	r30, 0x3D	; 61
    29be:	f8 e0       	ldi	r31, 0x08	; 8
    29c0:	2d e4       	ldi	r18, 0x4D	; 77
    29c2:	38 e0       	ldi	r19, 0x08	; 8
			/*
			 * If the last operation was decryption, the encryption
			 * key must be stored in enc_key, so re-initialize it.
			 */
			for (i = 0; i < AES_BLOCKSIZE; ++i) {
				trx_reg_write(RG_AES_KEY, enc_key[i]);
    29c4:	af e3       	ldi	r26, 0x3F	; 63
    29c6:	b1 e0       	ldi	r27, 0x01	; 1
    29c8:	81 91       	ld	r24, Z+
    29ca:	8c 93       	st	X, r24
		if (last_dir == AES_DIR_DECRYPT) {
			/*
			 * If the last operation was decryption, the encryption
			 * key must be stored in enc_key, so re-initialize it.
			 */
			for (i = 0; i < AES_BLOCKSIZE; ++i) {
    29cc:	2e 17       	cp	r18, r30
    29ce:	3f 07       	cpc	r19, r31
    29d0:	d9 f7       	brne	.-10     	; 0x29c8 <sal_aes_setup+0x70>
    29d2:	23 c0       	rjmp	.+70     	; 0x2a1a <sal_aes_setup+0xc2>
		}

		break;

	case AES_DIR_DECRYPT:
		if (last_dir != AES_DIR_DECRYPT) {
    29d4:	80 91 11 02 	lds	r24, 0x0211	; 0x800211 <last_dir>
    29d8:	81 30       	cpi	r24, 0x01	; 1
    29da:	b1 f1       	breq	.+108    	; 0x2a48 <sal_aes_setup+0xf0>
			if (!dec_initialized) {
    29dc:	80 91 4e 08 	lds	r24, 0x084E	; 0x80084e <dec_initialized>
    29e0:	81 11       	cpse	r24, r1
    29e2:	36 c0       	rjmp	.+108    	; 0x2a50 <sal_aes_setup+0xf8>

				/* Compute decryption key and initialize unit
				 * with it. */

				/* Dummy ECB encryption. */
				mode_byte = SR_MASK(SR_AES_MODE, AES_MODE_ECB) |
    29e4:	10 92 4d 08 	sts	0x084D, r1	; 0x80084d <mode_byte>
						SR_MASK(SR_AES_DIR,
						AES_DIR_ENCRYPT);
				trx_reg_write(RG_AES_CTRL, mode_byte);
    29e8:	10 92 3c 01 	sts	0x013C, r1	; 0x80013c <__TEXT_REGION_LENGTH__+0x70013c>
				sal_aes_exec(dummy);
    29ec:	ce 01       	movw	r24, r28
    29ee:	01 96       	adiw	r24, 0x01	; 1
    29f0:	9d df       	rcall	.-198    	; 0x292c <sal_aes_exec>
    29f2:	ed e2       	ldi	r30, 0x2D	; 45
    29f4:	f8 e0       	ldi	r31, 0x08	; 8
    29f6:	2d e3       	ldi	r18, 0x3D	; 61
    29f8:	38 e0       	ldi	r19, 0x08	; 8

				/* Read last round key. */
				for (i = 0; i < AES_BLOCKSIZE; ++i) {
					dec_key[i]
						= trx_reg_read(RG_AES_KEY);
    29fa:	af e3       	ldi	r26, 0x3F	; 63
    29fc:	b1 e0       	ldi	r27, 0x01	; 1
    29fe:	8c 91       	ld	r24, X
    2a00:	81 93       	st	Z+, r24
						AES_DIR_ENCRYPT);
				trx_reg_write(RG_AES_CTRL, mode_byte);
				sal_aes_exec(dummy);

				/* Read last round key. */
				for (i = 0; i < AES_BLOCKSIZE; ++i) {
    2a02:	2e 17       	cp	r18, r30
    2a04:	3f 07       	cpc	r19, r31
    2a06:	d9 f7       	brne	.-10     	; 0x29fe <sal_aes_setup+0xa6>
					dec_key[i]
						= trx_reg_read(RG_AES_KEY);
				}

				dec_initialized = true;
    2a08:	81 e0       	ldi	r24, 0x01	; 1
    2a0a:	80 93 4e 08 	sts	0x084E, r24	; 0x80084e <dec_initialized>
    2a0e:	20 c0       	rjmp	.+64     	; 0x2a50 <sal_aes_setup+0xf8>
			}

			/* Initialize the key. */
			for (i = 0; i < AES_BLOCKSIZE; ++i) {
				trx_reg_write(RG_AES_KEY, dec_key[i]);
    2a10:	81 91       	ld	r24, Z+
    2a12:	8c 93       	st	X, r24

				dec_initialized = true;
			}

			/* Initialize the key. */
			for (i = 0; i < AES_BLOCKSIZE; ++i) {
    2a14:	2e 17       	cp	r18, r30
    2a16:	3f 07       	cpc	r19, r31
    2a18:	d9 f7       	brne	.-10     	; 0x2a10 <sal_aes_setup+0xb8>

	default:
		return false;
	}

	last_dir = dir;
    2a1a:	10 93 11 02 	sts	0x0211, r17	; 0x800211 <last_dir>

	/* Set encryption mode. */
	switch (enc_mode) {
    2a1e:	02 30       	cpi	r16, 0x02	; 2
    2a20:	a8 f4       	brcc	.+42     	; 0x2a4c <sal_aes_setup+0xf4>
	case AES_MODE_ECB:
	case AES_MODE_CBC:
		mode_byte
			= SR_MASK(SR_AES_MODE, enc_mode) | SR_MASK(SR_AES_DIR,
    2a22:	f0 e2       	ldi	r31, 0x20	; 32
    2a24:	0f 9f       	mul	r16, r31
    2a26:	c0 01       	movw	r24, r0
    2a28:	11 24       	eor	r1, r1
    2a2a:	08 2f       	mov	r16, r24
    2a2c:	00 72       	andi	r16, 0x20	; 32
    2a2e:	11 0f       	add	r17, r17
    2a30:	11 0f       	add	r17, r17
    2a32:	11 0f       	add	r17, r17
    2a34:	18 70       	andi	r17, 0x08	; 8
    2a36:	10 2b       	or	r17, r16
    2a38:	10 93 4d 08 	sts	0x084D, r17	; 0x80084d <mode_byte>
		return (false);
	}

	/* set mode and direction */

	trx_reg_write(RG_AES_CTRL, mode_byte);
    2a3c:	10 93 3c 01 	sts	0x013C, r17	; 0x80013c <__TEXT_REGION_LENGTH__+0x70013c>

	return (true);
    2a40:	81 e0       	ldi	r24, 0x01	; 1
    2a42:	0d c0       	rjmp	.+26     	; 0x2a5e <sal_aes_setup+0x106>

			break;
		}

	default:
		return false;
    2a44:	80 e0       	ldi	r24, 0x00	; 0
    2a46:	0b c0       	rjmp	.+22     	; 0x2a5e <sal_aes_setup+0x106>
    2a48:	80 e0       	ldi	r24, 0x00	; 0
    2a4a:	09 c0       	rjmp	.+18     	; 0x2a5e <sal_aes_setup+0x106>
			= SR_MASK(SR_AES_MODE, enc_mode) | SR_MASK(SR_AES_DIR,
				dir);
		break;

	default:
		return (false);
    2a4c:	80 e0       	ldi	r24, 0x00	; 0
    2a4e:	07 c0       	rjmp	.+14     	; 0x2a5e <sal_aes_setup+0x106>
    2a50:	ed e2       	ldi	r30, 0x2D	; 45
    2a52:	f8 e0       	ldi	r31, 0x08	; 8
    2a54:	2d e3       	ldi	r18, 0x3D	; 61
    2a56:	38 e0       	ldi	r19, 0x08	; 8
				dec_initialized = true;
			}

			/* Initialize the key. */
			for (i = 0; i < AES_BLOCKSIZE; ++i) {
				trx_reg_write(RG_AES_KEY, dec_key[i]);
    2a58:	af e3       	ldi	r26, 0x3F	; 63
    2a5a:	b1 e0       	ldi	r27, 0x01	; 1
    2a5c:	d9 cf       	rjmp	.-78     	; 0x2a10 <sal_aes_setup+0xb8>
	/* set mode and direction */

	trx_reg_write(RG_AES_CTRL, mode_byte);

	return (true);
}
    2a5e:	60 96       	adiw	r28, 0x10	; 16
    2a60:	0f b6       	in	r0, 0x3f	; 63
    2a62:	f8 94       	cli
    2a64:	de bf       	out	0x3e, r29	; 62
    2a66:	0f be       	out	0x3f, r0	; 63
    2a68:	cd bf       	out	0x3d, r28	; 61
    2a6a:	df 91       	pop	r29
    2a6c:	cf 91       	pop	r28
    2a6e:	1f 91       	pop	r17
    2a70:	0f 91       	pop	r16
    2a72:	08 95       	ret

00002a74 <sal_aes_read>:
 * of a series of sal_aes_wrrd() calls.
 *
 * @param[out] data     - result of previous operation
 */
void sal_aes_read(uint8_t *data)
{
    2a74:	fc 01       	movw	r30, r24
    2a76:	9c 01       	movw	r18, r24
    2a78:	20 5f       	subi	r18, 0xF0	; 240
    2a7a:	3f 4f       	sbci	r19, 0xFF	; 255
	uint8_t i;

	for (i = 0; i < AES_BLOCKSIZE; ++i) {
		*data++ = trx_reg_read(RG_AES_STATE);
    2a7c:	ae e3       	ldi	r26, 0x3E	; 62
    2a7e:	b1 e0       	ldi	r27, 0x01	; 1
    2a80:	8c 91       	ld	r24, X
    2a82:	81 93       	st	Z+, r24
 */
void sal_aes_read(uint8_t *data)
{
	uint8_t i;

	for (i = 0; i < AES_BLOCKSIZE; ++i) {
    2a84:	e2 17       	cp	r30, r18
    2a86:	f3 07       	cpc	r31, r19
    2a88:	d9 f7       	brne	.-10     	; 0x2a80 <sal_aes_read+0xc>
		*data++ = trx_reg_read(RG_AES_STATE);
	}
}
    2a8a:	08 95       	ret

00002a8c <appDataConf>:

/*************************************************************************//**
*****************************************************************************/
static void appDataConf(NWK_DataReq_t *req)
{
	appDataReqBusy = false;
    2a8c:	10 92 23 09 	sts	0x0923, r1	; 0x800923 <appDataReqBusy>
    2a90:	08 95       	ret

00002a92 <appDataInd>:
}

/*************************************************************************//**
*****************************************************************************/
static bool appDataInd(NWK_DataInd_t *ind)
{
    2a92:	0f 93       	push	r16
    2a94:	1f 93       	push	r17
    2a96:	cf 93       	push	r28
	for (uint8_t i = 0; i < ind->size; i++) {
    2a98:	dc 01       	movw	r26, r24
    2a9a:	19 96       	adiw	r26, 0x09	; 9
    2a9c:	2c 91       	ld	r18, X
    2a9e:	22 23       	and	r18, r18
    2aa0:	89 f0       	breq	.+34     	; 0x2ac4 <appDataInd+0x32>
    2aa2:	8c 01       	movw	r16, r24
    2aa4:	c0 e0       	ldi	r28, 0x00	; 0
		sio2host_putchar(ind->data[i]);
    2aa6:	d8 01       	movw	r26, r16
    2aa8:	17 96       	adiw	r26, 0x07	; 7
    2aaa:	ed 91       	ld	r30, X+
    2aac:	fc 91       	ld	r31, X
    2aae:	18 97       	sbiw	r26, 0x08	; 8
    2ab0:	ec 0f       	add	r30, r28
    2ab2:	f1 1d       	adc	r31, r1
    2ab4:	80 81       	ld	r24, Z
    2ab6:	0e 94 e1 03 	call	0x7c2	; 0x7c2 <sio2host_putchar>

/*************************************************************************//**
*****************************************************************************/
static bool appDataInd(NWK_DataInd_t *ind)
{
	for (uint8_t i = 0; i < ind->size; i++) {
    2aba:	cf 5f       	subi	r28, 0xFF	; 255
    2abc:	f8 01       	movw	r30, r16
    2abe:	81 85       	ldd	r24, Z+9	; 0x09
    2ac0:	c8 17       	cp	r28, r24
    2ac2:	88 f3       	brcs	.-30     	; 0x2aa6 <appDataInd+0x14>
 */
__always_inline static void arch_ioport_toggle_pin_level(ioport_pin_t pin)
{
	PORT_t *base = arch_ioport_pin_to_base(pin);

	base->PINCRL = arch_ioport_pin_to_mask(pin);
    2ac4:	80 e1       	ldi	r24, 0x10	; 16
    2ac6:	83 b9       	out	0x03, r24	; 3
		sio2host_putchar(ind->data[i]);
	}
	LED_Toggle(LED0);
	return true;
}
    2ac8:	81 e0       	ldi	r24, 0x01	; 1
    2aca:	cf 91       	pop	r28
    2acc:	1f 91       	pop	r17
    2ace:	0f 91       	pop	r16
    2ad0:	08 95       	ret

00002ad2 <appSendData>:
}

/*************************************************************************//**
*****************************************************************************/
static void appSendData(void)
{
    2ad2:	cf 93       	push	r28
    2ad4:	df 93       	push	r29
	if (appDataReqBusy || 0 == appUartBufferPtr) {
    2ad6:	80 91 23 09 	lds	r24, 0x0923	; 0x800923 <appDataReqBusy>
    2ada:	81 11       	cpse	r24, r1
    2adc:	26 c0       	rjmp	.+76     	; 0x2b2a <appSendData+0x58>
    2ade:	c0 91 50 08 	lds	r28, 0x0850	; 0x800850 <appUartBufferPtr>
    2ae2:	cc 23       	and	r28, r28
    2ae4:	11 f1       	breq	.+68     	; 0x2b2a <appSendData+0x58>
		return;
	}

	memcpy(appDataReqBuffer, appUartBuffer, appUartBufferPtr);
    2ae6:	4c 2f       	mov	r20, r28
    2ae8:	50 e0       	ldi	r21, 0x00	; 0
    2aea:	61 e5       	ldi	r22, 0x51	; 81
    2aec:	78 e0       	ldi	r23, 0x08	; 8
    2aee:	8a eb       	ldi	r24, 0xBA	; 186
    2af0:	98 e0       	ldi	r25, 0x08	; 8
    2af2:	48 d1       	rcall	.+656    	; 0x2d84 <memcpy>

	appDataReq.dstAddr = 1 - APP_ADDR;
    2af4:	e4 e2       	ldi	r30, 0x24	; 36
    2af6:	f9 e0       	ldi	r31, 0x09	; 9
    2af8:	16 82       	std	Z+6, r1	; 0x06
    2afa:	15 82       	std	Z+5, r1	; 0x05
	appDataReq.dstEndpoint = APP_ENDPOINT;
    2afc:	d1 e0       	ldi	r29, 0x01	; 1
    2afe:	d7 83       	std	Z+7, r29	; 0x07
	appDataReq.srcEndpoint = APP_ENDPOINT;
    2b00:	d0 87       	std	Z+8, r29	; 0x08
	appDataReq.options = NWK_OPT_ENABLE_SECURITY;
    2b02:	82 e0       	ldi	r24, 0x02	; 2
    2b04:	81 87       	std	Z+9, r24	; 0x09
	appDataReq.data = appDataReqBuffer;
    2b06:	8a eb       	ldi	r24, 0xBA	; 186
    2b08:	98 e0       	ldi	r25, 0x08	; 8
    2b0a:	93 87       	std	Z+11, r25	; 0x0b
    2b0c:	82 87       	std	Z+10, r24	; 0x0a
	appDataReq.size = appUartBufferPtr;
    2b0e:	c4 87       	std	Z+12, r28	; 0x0c
	appDataReq.confirm = appDataConf;
    2b10:	86 e4       	ldi	r24, 0x46	; 70
    2b12:	95 e1       	ldi	r25, 0x15	; 21
    2b14:	96 87       	std	Z+14, r25	; 0x0e
    2b16:	85 87       	std	Z+13, r24	; 0x0d
	NWK_DataReq(&appDataReq);
    2b18:	cf 01       	movw	r24, r30
    2b1a:	0e 94 94 04 	call	0x928	; 0x928 <NWK_DataReq>

	appUartBufferPtr = 0;
    2b1e:	10 92 50 08 	sts	0x0850, r1	; 0x800850 <appUartBufferPtr>
	appDataReqBusy = true;
    2b22:	d0 93 23 09 	sts	0x0923, r29	; 0x800923 <appDataReqBusy>
    2b26:	80 e1       	ldi	r24, 0x10	; 16
    2b28:	83 b9       	out	0x03, r24	; 3
	LED_Toggle(LED0);
}
    2b2a:	df 91       	pop	r29
    2b2c:	cf 91       	pop	r28
    2b2e:	08 95       	ret

00002b30 <appTimerHandler>:

/*************************************************************************//**
*****************************************************************************/
static void appTimerHandler(SYS_Timer_t *timer)
{
	appSendData();
    2b30:	d0 cf       	rjmp	.-96     	; 0x2ad2 <appSendData>
    2b32:	08 95       	ret

00002b34 <main>:
	irq_initialize_vectors();
	/*#if SAMD || SAMR21 || SAML21
	system_init();
	delay_init();
	#else*/
	sysclk_init();
    2b34:	0e 94 c7 01 	call	0x38e	; 0x38e <sysclk_init>
	board_init();
    2b38:	0e 94 70 02 	call	0x4e0	; 0x4e0 <board_init>
	//#endif
	SYS_Init();
    2b3c:	3e d9       	rcall	.-3460   	; 0x1dba <SYS_Init>
	sio2host_init();
    2b3e:	0e 94 42 03 	call	0x684	; 0x684 <sio2host_init>
	cpu_irq_enable();
    2b42:	78 94       	sei
		base_add->PORTDATA
			= (base_add->PORTDATA  | arch_ioport_pin_to_mask
					(pin));
	} else {
		base_add->PORTDATA
			= (base_add->PORTDATA  & (~arch_ioport_pin_to_mask
    2b44:	2c 98       	cbi	0x05, 4	; 5
#endif*/
	PHY_SetRxState(true);

	NWK_OpenEndpoint(APP_ENDPOINT, appDataInd);

	appTimer.interval = APP_FLUSH_TIMER_INTERVAL;
    2b46:	0f 2e       	mov	r0, r31
    2b48:	f5 e3       	ldi	r31, 0x35	; 53
    2b4a:	cf 2e       	mov	r12, r31
    2b4c:	f9 e0       	ldi	r31, 0x09	; 9
    2b4e:	df 2e       	mov	r13, r31
    2b50:	f0 2d       	mov	r31, r0
    2b52:	0f 2e       	mov	r0, r31
    2b54:	f4 e1       	ldi	r31, 0x14	; 20
    2b56:	8f 2e       	mov	r8, r31
    2b58:	91 2c       	mov	r9, r1
    2b5a:	a1 2c       	mov	r10, r1
    2b5c:	b1 2c       	mov	r11, r1
    2b5e:	f0 2d       	mov	r31, r0
	appTimer.mode = SYS_TIMER_INTERVAL_MODE;
	appTimer.handler = appTimerHandler;
    2b60:	0f 2e       	mov	r0, r31
    2b62:	f8 e9       	ldi	r31, 0x98	; 152
    2b64:	6f 2e       	mov	r6, r31
    2b66:	f5 e1       	ldi	r31, 0x15	; 21
    2b68:	7f 2e       	mov	r7, r31
	SYS_Init();
	sio2host_init();
	cpu_irq_enable();
	LED_On(LED0);
	while (1) {
		SYS_TaskHandler();
    2b6a:	f0 2d       	mov	r31, r0
    2b6c:	2c d9       	rcall	.-3496   	; 0x1dc6 <SYS_TaskHandler>

/*************************************************************************//**
*****************************************************************************/
static void APP_TaskHandler(void)
{
	switch (appState) {
    2b6e:	80 91 42 09 	lds	r24, 0x0942	; 0x800942 <appState>
    2b72:	81 11       	cpse	r24, r1
    2b74:	22 c0       	rjmp	.+68     	; 0x2bba <main+0x86>

/*************************************************************************//**
*****************************************************************************/
static void appInit(void)
{
	NWK_SetAddr(APP_ADDR);
    2b76:	81 e0       	ldi	r24, 0x01	; 1
    2b78:	90 e0       	ldi	r25, 0x00	; 0
    2b7a:	0e 94 4f 04 	call	0x89e	; 0x89e <NWK_SetAddr>
	NWK_SetPanId(APP_PANID);
    2b7e:	87 e6       	ldi	r24, 0x67	; 103
    2b80:	95 e4       	ldi	r25, 0x45	; 69
    2b82:	0e 94 56 04 	call	0x8ac	; 0x8ac <NWK_SetPanId>
	PHY_SetChannel(APP_CHANNEL);
    2b86:	8f e0       	ldi	r24, 0x0F	; 15
/*
#ifdef PHY_AT86RF212
	PHY_SetBand(APP_BAND);
	PHY_SetModulation(APP_MODULATION);
#endif*/
	PHY_SetRxState(true);
    2b88:	3a d8       	rcall	.-3980   	; 0x1bfe <PHY_SetChannel>
    2b8a:	81 e0       	ldi	r24, 0x01	; 1
    2b8c:	34 d8       	rcall	.-3992   	; 0x1bf6 <PHY_SetRxState>

	NWK_OpenEndpoint(APP_ENDPOINT, appDataInd);
    2b8e:	69 e4       	ldi	r22, 0x49	; 73
    2b90:	75 e1       	ldi	r23, 0x15	; 21
    2b92:	81 e0       	ldi	r24, 0x01	; 1
    2b94:	0e 94 5d 04 	call	0x8ba	; 0x8ba <NWK_OpenEndpoint>

	appTimer.interval = APP_FLUSH_TIMER_INTERVAL;
    2b98:	d6 01       	movw	r26, r12
    2b9a:	16 96       	adiw	r26, 0x06	; 6
    2b9c:	8d 92       	st	X+, r8
    2b9e:	9d 92       	st	X+, r9
    2ba0:	ad 92       	st	X+, r10
    2ba2:	bc 92       	st	X, r11
    2ba4:	19 97       	sbiw	r26, 0x09	; 9
	appTimer.mode = SYS_TIMER_INTERVAL_MODE;
    2ba6:	1a 96       	adiw	r26, 0x0a	; 10
    2ba8:	1c 92       	st	X, r1
    2baa:	1a 97       	sbiw	r26, 0x0a	; 10
	appTimer.handler = appTimerHandler;
    2bac:	1c 96       	adiw	r26, 0x0c	; 12
    2bae:	7c 92       	st	X, r7
    2bb0:	6e 92       	st	-X, r6
    2bb2:	1b 97       	sbiw	r26, 0x0b	; 11
{
	switch (appState) {
	case APP_STATE_INITIAL:
	{
		appInit();
		appState = APP_STATE_IDLE;
    2bb4:	81 e0       	ldi	r24, 0x01	; 1
    2bb6:	80 93 42 09 	sts	0x0942, r24	; 0x800942 <appState>
		break;

	default:
		break;
	}
	sio_rx_length = sio2host_rx(rx_data, APP_RX_BUF_SIZE);
    2bba:	64 e1       	ldi	r22, 0x14	; 20
    2bbc:	83 e4       	ldi	r24, 0x43	; 67
    2bbe:	99 e0       	ldi	r25, 0x09	; 9
    2bc0:	0e 94 a2 03 	call	0x744	; 0x744 <sio2host_rx>
    2bc4:	80 93 4f 08 	sts	0x084F, r24	; 0x80084f <sio_rx_length>
	if (sio_rx_length) {
    2bc8:	88 23       	and	r24, r24
    2bca:	81 f2       	breq	.-96     	; 0x2b6c <main+0x38>
    2bcc:	c3 e4       	ldi	r28, 0x43	; 67
    2bce:	d9 e0       	ldi	r29, 0x09	; 9
    2bd0:	00 e0       	ldi	r16, 0x00	; 0
    2bd2:	10 e0       	ldi	r17, 0x00	; 0
    2bd4:	7e 01       	movw	r14, r28
		for (uint16_t i = 0; i < sio_rx_length; i++) {
			sio2host_putchar(rx_data[i]);
    2bd6:	88 81       	ld	r24, Y
    2bd8:	0e 94 e1 03 	call	0x7c2	; 0x7c2 <sio2host_putchar>
			if (appUartBufferPtr == sizeof(appUartBuffer)) {
    2bdc:	80 91 50 08 	lds	r24, 0x0850	; 0x800850 <appUartBufferPtr>
    2be0:	89 36       	cpi	r24, 0x69	; 105
				appSendData();
    2be2:	09 f4       	brne	.+2      	; 0x2be6 <main+0xb2>
    2be4:	76 df       	rcall	.-276    	; 0x2ad2 <appSendData>
			}

			if (appUartBufferPtr < sizeof(appUartBuffer)) {
    2be6:	e0 91 50 08 	lds	r30, 0x0850	; 0x800850 <appUartBufferPtr>
    2bea:	e9 36       	cpi	r30, 0x69	; 105
    2bec:	50 f4       	brcc	.+20     	; 0x2c02 <main+0xce>
				appUartBuffer[appUartBufferPtr++] = rx_data[i];
    2bee:	81 e0       	ldi	r24, 0x01	; 1
    2bf0:	8e 0f       	add	r24, r30
    2bf2:	80 93 50 08 	sts	0x0850, r24	; 0x800850 <appUartBufferPtr>
    2bf6:	f0 e0       	ldi	r31, 0x00	; 0
    2bf8:	ef 5a       	subi	r30, 0xAF	; 175
    2bfa:	f7 4f       	sbci	r31, 0xF7	; 247
    2bfc:	d7 01       	movw	r26, r14
    2bfe:	8c 91       	ld	r24, X
    2c00:	80 83       	st	Z, r24
	default:
		break;
	}
	sio_rx_length = sio2host_rx(rx_data, APP_RX_BUF_SIZE);
	if (sio_rx_length) {
		for (uint16_t i = 0; i < sio_rx_length; i++) {
    2c02:	0f 5f       	subi	r16, 0xFF	; 255
    2c04:	1f 4f       	sbci	r17, 0xFF	; 255
    2c06:	21 96       	adiw	r28, 0x01	; 1
    2c08:	80 91 4f 08 	lds	r24, 0x084F	; 0x80084f <sio_rx_length>
    2c0c:	90 e0       	ldi	r25, 0x00	; 0
    2c0e:	08 17       	cp	r16, r24
    2c10:	19 07       	cpc	r17, r25
			if (appUartBufferPtr < sizeof(appUartBuffer)) {
				appUartBuffer[appUartBufferPtr++] = rx_data[i];
			}
		}

		SYS_TimerStop(&appTimer);
    2c12:	00 f3       	brcs	.-64     	; 0x2bd4 <main+0xa0>
    2c14:	c6 01       	movw	r24, r12
		SYS_TimerStart(&appTimer);
    2c16:	5e d9       	rcall	.-3396   	; 0x1ed4 <SYS_TimerStop>
    2c18:	c6 01       	movw	r24, r12
    2c1a:	b3 d9       	rcall	.-3226   	; 0x1f82 <SYS_TimerStart>
    2c1c:	a7 cf       	rjmp	.-178    	; 0x2b6c <main+0x38>

00002c1e <__mulsi3>:
    2c1e:	db 01       	movw	r26, r22
    2c20:	8f 93       	push	r24
    2c22:	9f 93       	push	r25
    2c24:	41 d0       	rcall	.+130    	; 0x2ca8 <__muluhisi3>
    2c26:	bf 91       	pop	r27
    2c28:	af 91       	pop	r26
    2c2a:	a2 9f       	mul	r26, r18
    2c2c:	80 0d       	add	r24, r0
    2c2e:	91 1d       	adc	r25, r1
    2c30:	a3 9f       	mul	r26, r19
    2c32:	90 0d       	add	r25, r0
    2c34:	b2 9f       	mul	r27, r18
    2c36:	90 0d       	add	r25, r0
    2c38:	11 24       	eor	r1, r1
    2c3a:	08 95       	ret

00002c3c <__udivmodhi4>:
    2c3c:	aa 1b       	sub	r26, r26
    2c3e:	bb 1b       	sub	r27, r27
    2c40:	51 e1       	ldi	r21, 0x11	; 17
    2c42:	07 c0       	rjmp	.+14     	; 0x2c52 <__udivmodhi4_ep>

00002c44 <__udivmodhi4_loop>:
    2c44:	aa 1f       	adc	r26, r26
    2c46:	bb 1f       	adc	r27, r27
    2c48:	a6 17       	cp	r26, r22
    2c4a:	b7 07       	cpc	r27, r23
    2c4c:	10 f0       	brcs	.+4      	; 0x2c52 <__udivmodhi4_ep>
    2c4e:	a6 1b       	sub	r26, r22
    2c50:	b7 0b       	sbc	r27, r23

00002c52 <__udivmodhi4_ep>:
    2c52:	88 1f       	adc	r24, r24
    2c54:	99 1f       	adc	r25, r25
    2c56:	5a 95       	dec	r21
    2c58:	a9 f7       	brne	.-22     	; 0x2c44 <__udivmodhi4_loop>
    2c5a:	80 95       	com	r24
    2c5c:	90 95       	com	r25
    2c5e:	bc 01       	movw	r22, r24
    2c60:	cd 01       	movw	r24, r26
    2c62:	08 95       	ret

00002c64 <__udivmodsi4>:
    2c64:	a1 e2       	ldi	r26, 0x21	; 33
    2c66:	1a 2e       	mov	r1, r26
    2c68:	aa 1b       	sub	r26, r26
    2c6a:	bb 1b       	sub	r27, r27
    2c6c:	fd 01       	movw	r30, r26
    2c6e:	0d c0       	rjmp	.+26     	; 0x2c8a <__udivmodsi4_ep>

00002c70 <__udivmodsi4_loop>:
    2c70:	aa 1f       	adc	r26, r26
    2c72:	bb 1f       	adc	r27, r27
    2c74:	ee 1f       	adc	r30, r30
    2c76:	ff 1f       	adc	r31, r31
    2c78:	a2 17       	cp	r26, r18
    2c7a:	b3 07       	cpc	r27, r19
    2c7c:	e4 07       	cpc	r30, r20
    2c7e:	f5 07       	cpc	r31, r21
    2c80:	20 f0       	brcs	.+8      	; 0x2c8a <__udivmodsi4_ep>
    2c82:	a2 1b       	sub	r26, r18
    2c84:	b3 0b       	sbc	r27, r19
    2c86:	e4 0b       	sbc	r30, r20
    2c88:	f5 0b       	sbc	r31, r21

00002c8a <__udivmodsi4_ep>:
    2c8a:	66 1f       	adc	r22, r22
    2c8c:	77 1f       	adc	r23, r23
    2c8e:	88 1f       	adc	r24, r24
    2c90:	99 1f       	adc	r25, r25
    2c92:	1a 94       	dec	r1
    2c94:	69 f7       	brne	.-38     	; 0x2c70 <__udivmodsi4_loop>
    2c96:	60 95       	com	r22
    2c98:	70 95       	com	r23
    2c9a:	80 95       	com	r24
    2c9c:	90 95       	com	r25
    2c9e:	9b 01       	movw	r18, r22
    2ca0:	ac 01       	movw	r20, r24
    2ca2:	bd 01       	movw	r22, r26
    2ca4:	cf 01       	movw	r24, r30
    2ca6:	08 95       	ret

00002ca8 <__muluhisi3>:
    2ca8:	09 d0       	rcall	.+18     	; 0x2cbc <__umulhisi3>
    2caa:	a5 9f       	mul	r26, r21
    2cac:	90 0d       	add	r25, r0
    2cae:	b4 9f       	mul	r27, r20
    2cb0:	90 0d       	add	r25, r0
    2cb2:	a4 9f       	mul	r26, r20
    2cb4:	80 0d       	add	r24, r0
    2cb6:	91 1d       	adc	r25, r1
    2cb8:	11 24       	eor	r1, r1
    2cba:	08 95       	ret

00002cbc <__umulhisi3>:
    2cbc:	a2 9f       	mul	r26, r18
    2cbe:	b0 01       	movw	r22, r0
    2cc0:	b3 9f       	mul	r27, r19
    2cc2:	c0 01       	movw	r24, r0
    2cc4:	a3 9f       	mul	r26, r19
    2cc6:	70 0d       	add	r23, r0
    2cc8:	81 1d       	adc	r24, r1
    2cca:	11 24       	eor	r1, r1
    2ccc:	91 1d       	adc	r25, r1
    2cce:	b2 9f       	mul	r27, r18
    2cd0:	70 0d       	add	r23, r0
    2cd2:	81 1d       	adc	r24, r1
    2cd4:	11 24       	eor	r1, r1
    2cd6:	91 1d       	adc	r25, r1
    2cd8:	08 95       	ret

00002cda <do_rand>:
    2cda:	8f 92       	push	r8
    2cdc:	9f 92       	push	r9
    2cde:	af 92       	push	r10
    2ce0:	bf 92       	push	r11
    2ce2:	cf 92       	push	r12
    2ce4:	df 92       	push	r13
    2ce6:	ef 92       	push	r14
    2ce8:	ff 92       	push	r15
    2cea:	cf 93       	push	r28
    2cec:	df 93       	push	r29
    2cee:	ec 01       	movw	r28, r24
    2cf0:	68 81       	ld	r22, Y
    2cf2:	79 81       	ldd	r23, Y+1	; 0x01
    2cf4:	8a 81       	ldd	r24, Y+2	; 0x02
    2cf6:	9b 81       	ldd	r25, Y+3	; 0x03
    2cf8:	61 15       	cp	r22, r1
    2cfa:	71 05       	cpc	r23, r1
    2cfc:	81 05       	cpc	r24, r1
    2cfe:	91 05       	cpc	r25, r1
    2d00:	21 f4       	brne	.+8      	; 0x2d0a <do_rand+0x30>
    2d02:	64 e2       	ldi	r22, 0x24	; 36
    2d04:	79 ed       	ldi	r23, 0xD9	; 217
    2d06:	8b e5       	ldi	r24, 0x5B	; 91
    2d08:	97 e0       	ldi	r25, 0x07	; 7
    2d0a:	2d e1       	ldi	r18, 0x1D	; 29
    2d0c:	33 ef       	ldi	r19, 0xF3	; 243
    2d0e:	41 e0       	ldi	r20, 0x01	; 1
    2d10:	50 e0       	ldi	r21, 0x00	; 0
    2d12:	cd d1       	rcall	.+922    	; 0x30ae <__divmodsi4>
    2d14:	49 01       	movw	r8, r18
    2d16:	5a 01       	movw	r10, r20
    2d18:	9b 01       	movw	r18, r22
    2d1a:	ac 01       	movw	r20, r24
    2d1c:	a7 ea       	ldi	r26, 0xA7	; 167
    2d1e:	b1 e4       	ldi	r27, 0x41	; 65
    2d20:	c3 df       	rcall	.-122    	; 0x2ca8 <__muluhisi3>
    2d22:	6b 01       	movw	r12, r22
    2d24:	7c 01       	movw	r14, r24
    2d26:	ac ee       	ldi	r26, 0xEC	; 236
    2d28:	b4 ef       	ldi	r27, 0xF4	; 244
    2d2a:	a5 01       	movw	r20, r10
    2d2c:	94 01       	movw	r18, r8
    2d2e:	dd d1       	rcall	.+954    	; 0x30ea <__mulohisi3>
    2d30:	dc 01       	movw	r26, r24
    2d32:	cb 01       	movw	r24, r22
    2d34:	8c 0d       	add	r24, r12
    2d36:	9d 1d       	adc	r25, r13
    2d38:	ae 1d       	adc	r26, r14
    2d3a:	bf 1d       	adc	r27, r15
    2d3c:	b7 ff       	sbrs	r27, 7
    2d3e:	03 c0       	rjmp	.+6      	; 0x2d46 <do_rand+0x6c>
    2d40:	01 97       	sbiw	r24, 0x01	; 1
    2d42:	a1 09       	sbc	r26, r1
    2d44:	b0 48       	sbci	r27, 0x80	; 128
    2d46:	88 83       	st	Y, r24
    2d48:	99 83       	std	Y+1, r25	; 0x01
    2d4a:	aa 83       	std	Y+2, r26	; 0x02
    2d4c:	bb 83       	std	Y+3, r27	; 0x03
    2d4e:	9f 77       	andi	r25, 0x7F	; 127
    2d50:	df 91       	pop	r29
    2d52:	cf 91       	pop	r28
    2d54:	ff 90       	pop	r15
    2d56:	ef 90       	pop	r14
    2d58:	df 90       	pop	r13
    2d5a:	cf 90       	pop	r12
    2d5c:	bf 90       	pop	r11
    2d5e:	af 90       	pop	r10
    2d60:	9f 90       	pop	r9
    2d62:	8f 90       	pop	r8
    2d64:	08 95       	ret

00002d66 <rand_r>:
    2d66:	b9 cf       	rjmp	.-142    	; 0x2cda <do_rand>

00002d68 <rand>:
    2d68:	80 e0       	ldi	r24, 0x00	; 0
    2d6a:	92 e0       	ldi	r25, 0x02	; 2
    2d6c:	b6 cf       	rjmp	.-148    	; 0x2cda <do_rand>

00002d6e <srand>:
    2d6e:	a0 e0       	ldi	r26, 0x00	; 0
    2d70:	b0 e0       	ldi	r27, 0x00	; 0
    2d72:	80 93 00 02 	sts	0x0200, r24	; 0x800200 <__DATA_REGION_ORIGIN__>
    2d76:	90 93 01 02 	sts	0x0201, r25	; 0x800201 <__DATA_REGION_ORIGIN__+0x1>
    2d7a:	a0 93 02 02 	sts	0x0202, r26	; 0x800202 <__DATA_REGION_ORIGIN__+0x2>
    2d7e:	b0 93 03 02 	sts	0x0203, r27	; 0x800203 <__DATA_REGION_ORIGIN__+0x3>
    2d82:	08 95       	ret

00002d84 <memcpy>:
    2d84:	fb 01       	movw	r30, r22
    2d86:	dc 01       	movw	r26, r24
    2d88:	02 c0       	rjmp	.+4      	; 0x2d8e <memcpy+0xa>
    2d8a:	01 90       	ld	r0, Z+
    2d8c:	0d 92       	st	X+, r0
    2d8e:	41 50       	subi	r20, 0x01	; 1
    2d90:	50 40       	sbci	r21, 0x00	; 0
    2d92:	d8 f7       	brcc	.-10     	; 0x2d8a <memcpy+0x6>
    2d94:	08 95       	ret

00002d96 <fdevopen>:
    2d96:	0f 93       	push	r16
    2d98:	1f 93       	push	r17
    2d9a:	cf 93       	push	r28
    2d9c:	df 93       	push	r29
    2d9e:	00 97       	sbiw	r24, 0x00	; 0
    2da0:	31 f4       	brne	.+12     	; 0x2dae <fdevopen+0x18>
    2da2:	61 15       	cp	r22, r1
    2da4:	71 05       	cpc	r23, r1
    2da6:	19 f4       	brne	.+6      	; 0x2dae <fdevopen+0x18>
    2da8:	80 e0       	ldi	r24, 0x00	; 0
    2daa:	90 e0       	ldi	r25, 0x00	; 0
    2dac:	39 c0       	rjmp	.+114    	; 0x2e20 <fdevopen+0x8a>
    2dae:	8b 01       	movw	r16, r22
    2db0:	ec 01       	movw	r28, r24
    2db2:	6e e0       	ldi	r22, 0x0E	; 14
    2db4:	70 e0       	ldi	r23, 0x00	; 0
    2db6:	81 e0       	ldi	r24, 0x01	; 1
    2db8:	90 e0       	ldi	r25, 0x00	; 0
    2dba:	37 d0       	rcall	.+110    	; 0x2e2a <calloc>
    2dbc:	fc 01       	movw	r30, r24
    2dbe:	89 2b       	or	r24, r25
    2dc0:	99 f3       	breq	.-26     	; 0x2da8 <fdevopen+0x12>
    2dc2:	80 e8       	ldi	r24, 0x80	; 128
    2dc4:	83 83       	std	Z+3, r24	; 0x03
    2dc6:	01 15       	cp	r16, r1
    2dc8:	11 05       	cpc	r17, r1
    2dca:	71 f0       	breq	.+28     	; 0x2de8 <fdevopen+0x52>
    2dcc:	13 87       	std	Z+11, r17	; 0x0b
    2dce:	02 87       	std	Z+10, r16	; 0x0a
    2dd0:	81 e8       	ldi	r24, 0x81	; 129
    2dd2:	83 83       	std	Z+3, r24	; 0x03
    2dd4:	80 91 97 09 	lds	r24, 0x0997	; 0x800997 <__iob>
    2dd8:	90 91 98 09 	lds	r25, 0x0998	; 0x800998 <__iob+0x1>
    2ddc:	89 2b       	or	r24, r25
    2dde:	21 f4       	brne	.+8      	; 0x2de8 <fdevopen+0x52>
    2de0:	f0 93 98 09 	sts	0x0998, r31	; 0x800998 <__iob+0x1>
    2de4:	e0 93 97 09 	sts	0x0997, r30	; 0x800997 <__iob>
    2de8:	20 97       	sbiw	r28, 0x00	; 0
    2dea:	c9 f0       	breq	.+50     	; 0x2e1e <fdevopen+0x88>
    2dec:	d1 87       	std	Z+9, r29	; 0x09
    2dee:	c0 87       	std	Z+8, r28	; 0x08
    2df0:	83 81       	ldd	r24, Z+3	; 0x03
    2df2:	82 60       	ori	r24, 0x02	; 2
    2df4:	83 83       	std	Z+3, r24	; 0x03
    2df6:	80 91 99 09 	lds	r24, 0x0999	; 0x800999 <__iob+0x2>
    2dfa:	90 91 9a 09 	lds	r25, 0x099A	; 0x80099a <__iob+0x3>
    2dfe:	89 2b       	or	r24, r25
    2e00:	71 f4       	brne	.+28     	; 0x2e1e <fdevopen+0x88>
    2e02:	f0 93 9a 09 	sts	0x099A, r31	; 0x80099a <__iob+0x3>
    2e06:	e0 93 99 09 	sts	0x0999, r30	; 0x800999 <__iob+0x2>
    2e0a:	80 91 9b 09 	lds	r24, 0x099B	; 0x80099b <__iob+0x4>
    2e0e:	90 91 9c 09 	lds	r25, 0x099C	; 0x80099c <__iob+0x5>
    2e12:	89 2b       	or	r24, r25
    2e14:	21 f4       	brne	.+8      	; 0x2e1e <fdevopen+0x88>
    2e16:	f0 93 9c 09 	sts	0x099C, r31	; 0x80099c <__iob+0x5>
    2e1a:	e0 93 9b 09 	sts	0x099B, r30	; 0x80099b <__iob+0x4>
    2e1e:	cf 01       	movw	r24, r30
    2e20:	df 91       	pop	r29
    2e22:	cf 91       	pop	r28
    2e24:	1f 91       	pop	r17
    2e26:	0f 91       	pop	r16
    2e28:	08 95       	ret

00002e2a <calloc>:
    2e2a:	0f 93       	push	r16
    2e2c:	1f 93       	push	r17
    2e2e:	cf 93       	push	r28
    2e30:	df 93       	push	r29
    2e32:	86 9f       	mul	r24, r22
    2e34:	80 01       	movw	r16, r0
    2e36:	87 9f       	mul	r24, r23
    2e38:	10 0d       	add	r17, r0
    2e3a:	96 9f       	mul	r25, r22
    2e3c:	10 0d       	add	r17, r0
    2e3e:	11 24       	eor	r1, r1
    2e40:	c8 01       	movw	r24, r16
    2e42:	0d d0       	rcall	.+26     	; 0x2e5e <malloc>
    2e44:	ec 01       	movw	r28, r24
    2e46:	00 97       	sbiw	r24, 0x00	; 0
    2e48:	21 f0       	breq	.+8      	; 0x2e52 <calloc+0x28>
    2e4a:	a8 01       	movw	r20, r16
    2e4c:	60 e0       	ldi	r22, 0x00	; 0
    2e4e:	70 e0       	ldi	r23, 0x00	; 0
    2e50:	27 d1       	rcall	.+590    	; 0x30a0 <memset>
    2e52:	ce 01       	movw	r24, r28
    2e54:	df 91       	pop	r29
    2e56:	cf 91       	pop	r28
    2e58:	1f 91       	pop	r17
    2e5a:	0f 91       	pop	r16
    2e5c:	08 95       	ret

00002e5e <malloc>:
    2e5e:	0f 93       	push	r16
    2e60:	1f 93       	push	r17
    2e62:	cf 93       	push	r28
    2e64:	df 93       	push	r29
    2e66:	82 30       	cpi	r24, 0x02	; 2
    2e68:	91 05       	cpc	r25, r1
    2e6a:	10 f4       	brcc	.+4      	; 0x2e70 <malloc+0x12>
    2e6c:	82 e0       	ldi	r24, 0x02	; 2
    2e6e:	90 e0       	ldi	r25, 0x00	; 0
    2e70:	e0 91 9f 09 	lds	r30, 0x099F	; 0x80099f <__flp>
    2e74:	f0 91 a0 09 	lds	r31, 0x09A0	; 0x8009a0 <__flp+0x1>
    2e78:	20 e0       	ldi	r18, 0x00	; 0
    2e7a:	30 e0       	ldi	r19, 0x00	; 0
    2e7c:	a0 e0       	ldi	r26, 0x00	; 0
    2e7e:	b0 e0       	ldi	r27, 0x00	; 0
    2e80:	30 97       	sbiw	r30, 0x00	; 0
    2e82:	19 f1       	breq	.+70     	; 0x2eca <malloc+0x6c>
    2e84:	40 81       	ld	r20, Z
    2e86:	51 81       	ldd	r21, Z+1	; 0x01
    2e88:	02 81       	ldd	r16, Z+2	; 0x02
    2e8a:	13 81       	ldd	r17, Z+3	; 0x03
    2e8c:	48 17       	cp	r20, r24
    2e8e:	59 07       	cpc	r21, r25
    2e90:	c8 f0       	brcs	.+50     	; 0x2ec4 <malloc+0x66>
    2e92:	84 17       	cp	r24, r20
    2e94:	95 07       	cpc	r25, r21
    2e96:	69 f4       	brne	.+26     	; 0x2eb2 <malloc+0x54>
    2e98:	10 97       	sbiw	r26, 0x00	; 0
    2e9a:	31 f0       	breq	.+12     	; 0x2ea8 <malloc+0x4a>
    2e9c:	12 96       	adiw	r26, 0x02	; 2
    2e9e:	0c 93       	st	X, r16
    2ea0:	12 97       	sbiw	r26, 0x02	; 2
    2ea2:	13 96       	adiw	r26, 0x03	; 3
    2ea4:	1c 93       	st	X, r17
    2ea6:	27 c0       	rjmp	.+78     	; 0x2ef6 <malloc+0x98>
    2ea8:	00 93 9f 09 	sts	0x099F, r16	; 0x80099f <__flp>
    2eac:	10 93 a0 09 	sts	0x09A0, r17	; 0x8009a0 <__flp+0x1>
    2eb0:	22 c0       	rjmp	.+68     	; 0x2ef6 <malloc+0x98>
    2eb2:	21 15       	cp	r18, r1
    2eb4:	31 05       	cpc	r19, r1
    2eb6:	19 f0       	breq	.+6      	; 0x2ebe <malloc+0x60>
    2eb8:	42 17       	cp	r20, r18
    2eba:	53 07       	cpc	r21, r19
    2ebc:	18 f4       	brcc	.+6      	; 0x2ec4 <malloc+0x66>
    2ebe:	9a 01       	movw	r18, r20
    2ec0:	bd 01       	movw	r22, r26
    2ec2:	ef 01       	movw	r28, r30
    2ec4:	df 01       	movw	r26, r30
    2ec6:	f8 01       	movw	r30, r16
    2ec8:	db cf       	rjmp	.-74     	; 0x2e80 <malloc+0x22>
    2eca:	21 15       	cp	r18, r1
    2ecc:	31 05       	cpc	r19, r1
    2ece:	f9 f0       	breq	.+62     	; 0x2f0e <malloc+0xb0>
    2ed0:	28 1b       	sub	r18, r24
    2ed2:	39 0b       	sbc	r19, r25
    2ed4:	24 30       	cpi	r18, 0x04	; 4
    2ed6:	31 05       	cpc	r19, r1
    2ed8:	80 f4       	brcc	.+32     	; 0x2efa <malloc+0x9c>
    2eda:	8a 81       	ldd	r24, Y+2	; 0x02
    2edc:	9b 81       	ldd	r25, Y+3	; 0x03
    2ede:	61 15       	cp	r22, r1
    2ee0:	71 05       	cpc	r23, r1
    2ee2:	21 f0       	breq	.+8      	; 0x2eec <malloc+0x8e>
    2ee4:	fb 01       	movw	r30, r22
    2ee6:	93 83       	std	Z+3, r25	; 0x03
    2ee8:	82 83       	std	Z+2, r24	; 0x02
    2eea:	04 c0       	rjmp	.+8      	; 0x2ef4 <malloc+0x96>
    2eec:	90 93 a0 09 	sts	0x09A0, r25	; 0x8009a0 <__flp+0x1>
    2ef0:	80 93 9f 09 	sts	0x099F, r24	; 0x80099f <__flp>
    2ef4:	fe 01       	movw	r30, r28
    2ef6:	32 96       	adiw	r30, 0x02	; 2
    2ef8:	44 c0       	rjmp	.+136    	; 0x2f82 <malloc+0x124>
    2efa:	fe 01       	movw	r30, r28
    2efc:	e2 0f       	add	r30, r18
    2efe:	f3 1f       	adc	r31, r19
    2f00:	81 93       	st	Z+, r24
    2f02:	91 93       	st	Z+, r25
    2f04:	22 50       	subi	r18, 0x02	; 2
    2f06:	31 09       	sbc	r19, r1
    2f08:	39 83       	std	Y+1, r19	; 0x01
    2f0a:	28 83       	st	Y, r18
    2f0c:	3a c0       	rjmp	.+116    	; 0x2f82 <malloc+0x124>
    2f0e:	20 91 9d 09 	lds	r18, 0x099D	; 0x80099d <__brkval>
    2f12:	30 91 9e 09 	lds	r19, 0x099E	; 0x80099e <__brkval+0x1>
    2f16:	23 2b       	or	r18, r19
    2f18:	41 f4       	brne	.+16     	; 0x2f2a <malloc+0xcc>
    2f1a:	20 91 06 02 	lds	r18, 0x0206	; 0x800206 <__malloc_heap_start>
    2f1e:	30 91 07 02 	lds	r19, 0x0207	; 0x800207 <__malloc_heap_start+0x1>
    2f22:	30 93 9e 09 	sts	0x099E, r19	; 0x80099e <__brkval+0x1>
    2f26:	20 93 9d 09 	sts	0x099D, r18	; 0x80099d <__brkval>
    2f2a:	20 91 04 02 	lds	r18, 0x0204	; 0x800204 <__malloc_heap_end>
    2f2e:	30 91 05 02 	lds	r19, 0x0205	; 0x800205 <__malloc_heap_end+0x1>
    2f32:	21 15       	cp	r18, r1
    2f34:	31 05       	cpc	r19, r1
    2f36:	41 f4       	brne	.+16     	; 0x2f48 <malloc+0xea>
    2f38:	2d b7       	in	r18, 0x3d	; 61
    2f3a:	3e b7       	in	r19, 0x3e	; 62
    2f3c:	40 91 08 02 	lds	r20, 0x0208	; 0x800208 <__malloc_margin>
    2f40:	50 91 09 02 	lds	r21, 0x0209	; 0x800209 <__malloc_margin+0x1>
    2f44:	24 1b       	sub	r18, r20
    2f46:	35 0b       	sbc	r19, r21
    2f48:	e0 91 9d 09 	lds	r30, 0x099D	; 0x80099d <__brkval>
    2f4c:	f0 91 9e 09 	lds	r31, 0x099E	; 0x80099e <__brkval+0x1>
    2f50:	e2 17       	cp	r30, r18
    2f52:	f3 07       	cpc	r31, r19
    2f54:	a0 f4       	brcc	.+40     	; 0x2f7e <malloc+0x120>
    2f56:	2e 1b       	sub	r18, r30
    2f58:	3f 0b       	sbc	r19, r31
    2f5a:	28 17       	cp	r18, r24
    2f5c:	39 07       	cpc	r19, r25
    2f5e:	78 f0       	brcs	.+30     	; 0x2f7e <malloc+0x120>
    2f60:	ac 01       	movw	r20, r24
    2f62:	4e 5f       	subi	r20, 0xFE	; 254
    2f64:	5f 4f       	sbci	r21, 0xFF	; 255
    2f66:	24 17       	cp	r18, r20
    2f68:	35 07       	cpc	r19, r21
    2f6a:	48 f0       	brcs	.+18     	; 0x2f7e <malloc+0x120>
    2f6c:	4e 0f       	add	r20, r30
    2f6e:	5f 1f       	adc	r21, r31
    2f70:	50 93 9e 09 	sts	0x099E, r21	; 0x80099e <__brkval+0x1>
    2f74:	40 93 9d 09 	sts	0x099D, r20	; 0x80099d <__brkval>
    2f78:	81 93       	st	Z+, r24
    2f7a:	91 93       	st	Z+, r25
    2f7c:	02 c0       	rjmp	.+4      	; 0x2f82 <malloc+0x124>
    2f7e:	e0 e0       	ldi	r30, 0x00	; 0
    2f80:	f0 e0       	ldi	r31, 0x00	; 0
    2f82:	cf 01       	movw	r24, r30
    2f84:	df 91       	pop	r29
    2f86:	cf 91       	pop	r28
    2f88:	1f 91       	pop	r17
    2f8a:	0f 91       	pop	r16
    2f8c:	08 95       	ret

00002f8e <free>:
    2f8e:	cf 93       	push	r28
    2f90:	df 93       	push	r29
    2f92:	00 97       	sbiw	r24, 0x00	; 0
    2f94:	09 f4       	brne	.+2      	; 0x2f98 <free+0xa>
    2f96:	81 c0       	rjmp	.+258    	; 0x309a <free+0x10c>
    2f98:	fc 01       	movw	r30, r24
    2f9a:	32 97       	sbiw	r30, 0x02	; 2
    2f9c:	13 82       	std	Z+3, r1	; 0x03
    2f9e:	12 82       	std	Z+2, r1	; 0x02
    2fa0:	a0 91 9f 09 	lds	r26, 0x099F	; 0x80099f <__flp>
    2fa4:	b0 91 a0 09 	lds	r27, 0x09A0	; 0x8009a0 <__flp+0x1>
    2fa8:	10 97       	sbiw	r26, 0x00	; 0
    2faa:	81 f4       	brne	.+32     	; 0x2fcc <free+0x3e>
    2fac:	20 81       	ld	r18, Z
    2fae:	31 81       	ldd	r19, Z+1	; 0x01
    2fb0:	82 0f       	add	r24, r18
    2fb2:	93 1f       	adc	r25, r19
    2fb4:	20 91 9d 09 	lds	r18, 0x099D	; 0x80099d <__brkval>
    2fb8:	30 91 9e 09 	lds	r19, 0x099E	; 0x80099e <__brkval+0x1>
    2fbc:	28 17       	cp	r18, r24
    2fbe:	39 07       	cpc	r19, r25
    2fc0:	51 f5       	brne	.+84     	; 0x3016 <free+0x88>
    2fc2:	f0 93 9e 09 	sts	0x099E, r31	; 0x80099e <__brkval+0x1>
    2fc6:	e0 93 9d 09 	sts	0x099D, r30	; 0x80099d <__brkval>
    2fca:	67 c0       	rjmp	.+206    	; 0x309a <free+0x10c>
    2fcc:	ed 01       	movw	r28, r26
    2fce:	20 e0       	ldi	r18, 0x00	; 0
    2fd0:	30 e0       	ldi	r19, 0x00	; 0
    2fd2:	ce 17       	cp	r28, r30
    2fd4:	df 07       	cpc	r29, r31
    2fd6:	40 f4       	brcc	.+16     	; 0x2fe8 <free+0x5a>
    2fd8:	4a 81       	ldd	r20, Y+2	; 0x02
    2fda:	5b 81       	ldd	r21, Y+3	; 0x03
    2fdc:	9e 01       	movw	r18, r28
    2fde:	41 15       	cp	r20, r1
    2fe0:	51 05       	cpc	r21, r1
    2fe2:	f1 f0       	breq	.+60     	; 0x3020 <free+0x92>
    2fe4:	ea 01       	movw	r28, r20
    2fe6:	f5 cf       	rjmp	.-22     	; 0x2fd2 <free+0x44>
    2fe8:	d3 83       	std	Z+3, r29	; 0x03
    2fea:	c2 83       	std	Z+2, r28	; 0x02
    2fec:	40 81       	ld	r20, Z
    2fee:	51 81       	ldd	r21, Z+1	; 0x01
    2ff0:	84 0f       	add	r24, r20
    2ff2:	95 1f       	adc	r25, r21
    2ff4:	c8 17       	cp	r28, r24
    2ff6:	d9 07       	cpc	r29, r25
    2ff8:	59 f4       	brne	.+22     	; 0x3010 <free+0x82>
    2ffa:	88 81       	ld	r24, Y
    2ffc:	99 81       	ldd	r25, Y+1	; 0x01
    2ffe:	84 0f       	add	r24, r20
    3000:	95 1f       	adc	r25, r21
    3002:	02 96       	adiw	r24, 0x02	; 2
    3004:	91 83       	std	Z+1, r25	; 0x01
    3006:	80 83       	st	Z, r24
    3008:	8a 81       	ldd	r24, Y+2	; 0x02
    300a:	9b 81       	ldd	r25, Y+3	; 0x03
    300c:	93 83       	std	Z+3, r25	; 0x03
    300e:	82 83       	std	Z+2, r24	; 0x02
    3010:	21 15       	cp	r18, r1
    3012:	31 05       	cpc	r19, r1
    3014:	29 f4       	brne	.+10     	; 0x3020 <free+0x92>
    3016:	f0 93 a0 09 	sts	0x09A0, r31	; 0x8009a0 <__flp+0x1>
    301a:	e0 93 9f 09 	sts	0x099F, r30	; 0x80099f <__flp>
    301e:	3d c0       	rjmp	.+122    	; 0x309a <free+0x10c>
    3020:	e9 01       	movw	r28, r18
    3022:	fb 83       	std	Y+3, r31	; 0x03
    3024:	ea 83       	std	Y+2, r30	; 0x02
    3026:	49 91       	ld	r20, Y+
    3028:	59 91       	ld	r21, Y+
    302a:	c4 0f       	add	r28, r20
    302c:	d5 1f       	adc	r29, r21
    302e:	ec 17       	cp	r30, r28
    3030:	fd 07       	cpc	r31, r29
    3032:	61 f4       	brne	.+24     	; 0x304c <free+0xbe>
    3034:	80 81       	ld	r24, Z
    3036:	91 81       	ldd	r25, Z+1	; 0x01
    3038:	84 0f       	add	r24, r20
    303a:	95 1f       	adc	r25, r21
    303c:	02 96       	adiw	r24, 0x02	; 2
    303e:	e9 01       	movw	r28, r18
    3040:	99 83       	std	Y+1, r25	; 0x01
    3042:	88 83       	st	Y, r24
    3044:	82 81       	ldd	r24, Z+2	; 0x02
    3046:	93 81       	ldd	r25, Z+3	; 0x03
    3048:	9b 83       	std	Y+3, r25	; 0x03
    304a:	8a 83       	std	Y+2, r24	; 0x02
    304c:	e0 e0       	ldi	r30, 0x00	; 0
    304e:	f0 e0       	ldi	r31, 0x00	; 0
    3050:	12 96       	adiw	r26, 0x02	; 2
    3052:	8d 91       	ld	r24, X+
    3054:	9c 91       	ld	r25, X
    3056:	13 97       	sbiw	r26, 0x03	; 3
    3058:	00 97       	sbiw	r24, 0x00	; 0
    305a:	19 f0       	breq	.+6      	; 0x3062 <free+0xd4>
    305c:	fd 01       	movw	r30, r26
    305e:	dc 01       	movw	r26, r24
    3060:	f7 cf       	rjmp	.-18     	; 0x3050 <free+0xc2>
    3062:	8d 91       	ld	r24, X+
    3064:	9c 91       	ld	r25, X
    3066:	11 97       	sbiw	r26, 0x01	; 1
    3068:	9d 01       	movw	r18, r26
    306a:	2e 5f       	subi	r18, 0xFE	; 254
    306c:	3f 4f       	sbci	r19, 0xFF	; 255
    306e:	82 0f       	add	r24, r18
    3070:	93 1f       	adc	r25, r19
    3072:	20 91 9d 09 	lds	r18, 0x099D	; 0x80099d <__brkval>
    3076:	30 91 9e 09 	lds	r19, 0x099E	; 0x80099e <__brkval+0x1>
    307a:	28 17       	cp	r18, r24
    307c:	39 07       	cpc	r19, r25
    307e:	69 f4       	brne	.+26     	; 0x309a <free+0x10c>
    3080:	30 97       	sbiw	r30, 0x00	; 0
    3082:	29 f4       	brne	.+10     	; 0x308e <free+0x100>
    3084:	10 92 a0 09 	sts	0x09A0, r1	; 0x8009a0 <__flp+0x1>
    3088:	10 92 9f 09 	sts	0x099F, r1	; 0x80099f <__flp>
    308c:	02 c0       	rjmp	.+4      	; 0x3092 <free+0x104>
    308e:	13 82       	std	Z+3, r1	; 0x03
    3090:	12 82       	std	Z+2, r1	; 0x02
    3092:	b0 93 9e 09 	sts	0x099E, r27	; 0x80099e <__brkval+0x1>
    3096:	a0 93 9d 09 	sts	0x099D, r26	; 0x80099d <__brkval>
    309a:	df 91       	pop	r29
    309c:	cf 91       	pop	r28
    309e:	08 95       	ret

000030a0 <memset>:
    30a0:	dc 01       	movw	r26, r24
    30a2:	01 c0       	rjmp	.+2      	; 0x30a6 <memset+0x6>
    30a4:	6d 93       	st	X+, r22
    30a6:	41 50       	subi	r20, 0x01	; 1
    30a8:	50 40       	sbci	r21, 0x00	; 0
    30aa:	e0 f7       	brcc	.-8      	; 0x30a4 <memset+0x4>
    30ac:	08 95       	ret

000030ae <__divmodsi4>:
    30ae:	05 2e       	mov	r0, r21
    30b0:	97 fb       	bst	r25, 7
    30b2:	16 f4       	brtc	.+4      	; 0x30b8 <__divmodsi4+0xa>
    30b4:	00 94       	com	r0
    30b6:	0f d0       	rcall	.+30     	; 0x30d6 <__negsi2>
    30b8:	57 fd       	sbrc	r21, 7
    30ba:	05 d0       	rcall	.+10     	; 0x30c6 <__divmodsi4_neg2>
    30bc:	d3 dd       	rcall	.-1114   	; 0x2c64 <__udivmodsi4>
    30be:	07 fc       	sbrc	r0, 7
    30c0:	02 d0       	rcall	.+4      	; 0x30c6 <__divmodsi4_neg2>
    30c2:	46 f4       	brtc	.+16     	; 0x30d4 <__divmodsi4_exit>
    30c4:	08 c0       	rjmp	.+16     	; 0x30d6 <__negsi2>

000030c6 <__divmodsi4_neg2>:
    30c6:	50 95       	com	r21
    30c8:	40 95       	com	r20
    30ca:	30 95       	com	r19
    30cc:	21 95       	neg	r18
    30ce:	3f 4f       	sbci	r19, 0xFF	; 255
    30d0:	4f 4f       	sbci	r20, 0xFF	; 255
    30d2:	5f 4f       	sbci	r21, 0xFF	; 255

000030d4 <__divmodsi4_exit>:
    30d4:	08 95       	ret

000030d6 <__negsi2>:
    30d6:	90 95       	com	r25
    30d8:	80 95       	com	r24
    30da:	70 95       	com	r23
    30dc:	61 95       	neg	r22
    30de:	7f 4f       	sbci	r23, 0xFF	; 255
    30e0:	8f 4f       	sbci	r24, 0xFF	; 255
    30e2:	9f 4f       	sbci	r25, 0xFF	; 255
    30e4:	08 95       	ret

000030e6 <__mulshisi3>:
    30e6:	b7 ff       	sbrs	r27, 7
    30e8:	df cd       	rjmp	.-1090   	; 0x2ca8 <__muluhisi3>

000030ea <__mulohisi3>:
    30ea:	de dd       	rcall	.-1092   	; 0x2ca8 <__muluhisi3>
    30ec:	82 1b       	sub	r24, r18
    30ee:	93 0b       	sbc	r25, r19
    30f0:	08 95       	ret

000030f2 <_exit>:
    30f2:	f8 94       	cli

000030f4 <__stop_program>:
    30f4:	ff cf       	rjmp	.-2      	; 0x30f4 <__stop_program>
